---
triple:          'arm64-apple-darwin'
binary-path:     exemple6.x
relocations:
  - { offset: 0x3B, size: 0x8, addend: 0x0, symName: _.str, symObjAddr: 0x5EE20, symBinAddr: 0x100063360, symSize: 0x0 }
  - { offset: 0x6B, size: 0x8, addend: 0x0, symName: _.str.1, symObjAddr: 0x5EE40, symBinAddr: 0x100063380, symSize: 0x0 }
  - { offset: 0x88, size: 0x8, addend: 0x0, symName: _.str.2, symObjAddr: 0x5EE60, symBinAddr: 0x1000633A0, symSize: 0x0 }
  - { offset: 0x99, size: 0x8, addend: 0x0, symName: _.str.3, symObjAddr: 0x5EE80, symBinAddr: 0x1000633C0, symSize: 0x0 }
  - { offset: 0xAA, size: 0x8, addend: 0x0, symName: _.str.4, symObjAddr: 0x5EEA0, symBinAddr: 0x1000633E0, symSize: 0x0 }
  - { offset: 0xC7, size: 0x8, addend: 0x0, symName: _.str.5, symObjAddr: 0x5EEC0, symBinAddr: 0x100063400, symSize: 0x0 }
  - { offset: 0xD8, size: 0x8, addend: 0x0, symName: _.str.6, symObjAddr: 0x5EEE0, symBinAddr: 0x100063420, symSize: 0x0 }
  - { offset: 0xF5, size: 0x8, addend: 0x0, symName: _.str.7, symObjAddr: 0x5EF40, symBinAddr: 0x100063480, symSize: 0x0 }
  - { offset: 0x112, size: 0x8, addend: 0x0, symName: _.str.8, symObjAddr: 0x5EFA0, symBinAddr: 0x1000634E0, symSize: 0x0 }
  - { offset: 0x12F, size: 0x8, addend: 0x0, symName: _.str.9, symObjAddr: 0x5EFC0, symBinAddr: 0x100063500, symSize: 0x0 }
  - { offset: 0x140, size: 0x8, addend: 0x0, symName: _.str.10, symObjAddr: 0x5EFE0, symBinAddr: 0x100063520, symSize: 0x0 }
  - { offset: 0x151, size: 0x8, addend: 0x0, symName: _.str.11, symObjAddr: 0x5F000, symBinAddr: 0x100063540, symSize: 0x0 }
  - { offset: 0x162, size: 0x8, addend: 0x0, symName: _.str.12, symObjAddr: 0x5F060, symBinAddr: 0x1000635A0, symSize: 0x0 }
  - { offset: 0x17F, size: 0x8, addend: 0x0, symName: _.str.13, symObjAddr: 0x5F0C0, symBinAddr: 0x100063600, symSize: 0x0 }
  - { offset: 0x19C, size: 0x8, addend: 0x0, symName: _.str.14, symObjAddr: 0x5F0E0, symBinAddr: 0x100063620, symSize: 0x0 }
  - { offset: 0x1AD, size: 0x8, addend: 0x0, symName: _.str.15, symObjAddr: 0x5F100, symBinAddr: 0x100063640, symSize: 0x0 }
  - { offset: 0x1BE, size: 0x8, addend: 0x0, symName: _.str.16, symObjAddr: 0x5F120, symBinAddr: 0x100063660, symSize: 0x0 }
  - { offset: 0x1DB, size: 0x8, addend: 0x0, symName: _.str.17, symObjAddr: 0x5F180, symBinAddr: 0x1000636C0, symSize: 0x0 }
  - { offset: 0x1EC, size: 0x8, addend: 0x0, symName: _.str.18, symObjAddr: 0x5F1A0, symBinAddr: 0x1000636E0, symSize: 0x0 }
  - { offset: 0x209, size: 0x8, addend: 0x0, symName: _.str.19, symObjAddr: 0x5F1C0, symBinAddr: 0x100063700, symSize: 0x0 }
  - { offset: 0x226, size: 0x8, addend: 0x0, symName: _.str.20, symObjAddr: 0x5F1E0, symBinAddr: 0x100063720, symSize: 0x0 }
  - { offset: 0x243, size: 0x8, addend: 0x0, symName: _.str.21, symObjAddr: 0x5F200, symBinAddr: 0x100063740, symSize: 0x0 }
  - { offset: 0x254, size: 0x8, addend: 0x0, symName: _.str.22, symObjAddr: 0x5F220, symBinAddr: 0x100063760, symSize: 0x0 }
  - { offset: 0x271, size: 0x8, addend: 0x0, symName: _.str.23, symObjAddr: 0x5F280, symBinAddr: 0x1000637C0, symSize: 0x0 }
  - { offset: 0x282, size: 0x8, addend: 0x0, symName: _.str.24, symObjAddr: 0x5F2A0, symBinAddr: 0x1000637E0, symSize: 0x0 }
  - { offset: 0x29F, size: 0x8, addend: 0x0, symName: _.str.25, symObjAddr: 0x5F2C0, symBinAddr: 0x100063800, symSize: 0x0 }
  - { offset: 0x2BC, size: 0x8, addend: 0x0, symName: _.str.26, symObjAddr: 0x5F320, symBinAddr: 0x100063860, symSize: 0x0 }
  - { offset: 0x2D9, size: 0x8, addend: 0x0, symName: _.str.27, symObjAddr: 0x5F3A0, symBinAddr: 0x1000638E0, symSize: 0x0 }
  - { offset: 0x2F6, size: 0x8, addend: 0x0, symName: _.str.28, symObjAddr: 0x5F420, symBinAddr: 0x100063960, symSize: 0x0 }
  - { offset: 0x313, size: 0x8, addend: 0x0, symName: _.str.29, symObjAddr: 0x5F4A0, symBinAddr: 0x1000639E0, symSize: 0x0 }
  - { offset: 0x330, size: 0x8, addend: 0x0, symName: _.str.30, symObjAddr: 0x5F500, symBinAddr: 0x100063A40, symSize: 0x0 }
  - { offset: 0x34D, size: 0x8, addend: 0x0, symName: _.str.31, symObjAddr: 0x5F540, symBinAddr: 0x100063A80, symSize: 0x0 }
  - { offset: 0x35F, size: 0x8, addend: 0x0, symName: _.str.32, symObjAddr: 0x5F560, symBinAddr: 0x100063AA0, symSize: 0x0 }
  - { offset: 0x37D, size: 0x8, addend: 0x0, symName: _.str.33, symObjAddr: 0x5F5C0, symBinAddr: 0x100063B00, symSize: 0x0 }
  - { offset: 0x39B, size: 0x8, addend: 0x0, symName: _.str.34, symObjAddr: 0x5F620, symBinAddr: 0x100063B60, symSize: 0x0 }
  - { offset: 0x3B9, size: 0x8, addend: 0x0, symName: _.str.35, symObjAddr: 0x5F680, symBinAddr: 0x100063BC0, symSize: 0x0 }
  - { offset: 0x3D7, size: 0x8, addend: 0x0, symName: _.str.36, symObjAddr: 0x5F6C0, symBinAddr: 0x100063C00, symSize: 0x0 }
  - { offset: 0x3E9, size: 0x8, addend: 0x0, symName: _.str.37, symObjAddr: 0x5F6E0, symBinAddr: 0x100063C20, symSize: 0x0 }
  - { offset: 0x407, size: 0x8, addend: 0x0, symName: _.str.38, symObjAddr: 0x5F740, symBinAddr: 0x100063C80, symSize: 0x0 }
  - { offset: 0x425, size: 0x8, addend: 0x0, symName: _.str.39, symObjAddr: 0x5F760, symBinAddr: 0x100063CA0, symSize: 0x0 }
  - { offset: 0x437, size: 0x8, addend: 0x0, symName: _.str.40, symObjAddr: 0x5F780, symBinAddr: 0x100063CC0, symSize: 0x0 }
  - { offset: 0x449, size: 0x8, addend: 0x0, symName: _.str.41, symObjAddr: 0x5F7C0, symBinAddr: 0x100063D00, symSize: 0x0 }
  - { offset: 0x45B, size: 0x8, addend: 0x0, symName: _.str.42, symObjAddr: 0x5F7E0, symBinAddr: 0x100063D20, symSize: 0x0 }
  - { offset: 0x46D, size: 0x8, addend: 0x0, symName: _.str.43, symObjAddr: 0x5F820, symBinAddr: 0x100063D60, symSize: 0x0 }
  - { offset: 0x47F, size: 0x8, addend: 0x0, symName: _.str.44, symObjAddr: 0x5F860, symBinAddr: 0x100063DA0, symSize: 0x0 }
  - { offset: 0x49D, size: 0x8, addend: 0x0, symName: _.str.45, symObjAddr: 0x5F900, symBinAddr: 0x100063E40, symSize: 0x0 }
  - { offset: 0x4BB, size: 0x8, addend: 0x0, symName: _.str.46, symObjAddr: 0x5F980, symBinAddr: 0x100063EC0, symSize: 0x0 }
  - { offset: 0x4D9, size: 0x8, addend: 0x0, symName: _.str.47, symObjAddr: 0x5FA20, symBinAddr: 0x100063F60, symSize: 0x0 }
  - { offset: 0x4F7, size: 0x8, addend: 0x0, symName: _.str.48, symObjAddr: 0x5FAC0, symBinAddr: 0x100064000, symSize: 0x0 }
  - { offset: 0x509, size: 0x8, addend: 0x0, symName: _.str.49, symObjAddr: 0x5FAE0, symBinAddr: 0x100064020, symSize: 0x0 }
  - { offset: 0x527, size: 0x8, addend: 0x0, symName: _.str.50, symObjAddr: 0x5FB40, symBinAddr: 0x100064080, symSize: 0x0 }
  - { offset: 0x539, size: 0x8, addend: 0x0, symName: _.str.51, symObjAddr: 0x5FBA0, symBinAddr: 0x1000640E0, symSize: 0x0 }
  - { offset: 0x556, size: 0x8, addend: 0x0, symName: _.str.52, symObjAddr: 0x5FBC0, symBinAddr: 0x100064100, symSize: 0x0 }
  - { offset: 0xFC1A, size: 0x8, addend: 0x0, symName: __ZNSt3__124__put_character_sequenceB8ne180100IcNS_11char_traitsIcEEEERNS_13basic_ostreamIT_T0_EES7_PKS4_m, symObjAddr: 0x22D0C, symBinAddr: 0x1000269F8, symSize: 0x838 }
  - { offset: 0x15201, size: 0x8, addend: 0x0, symName: __ZNSt3__17advanceB8ne180100INS_21__tree_const_iteratorIiPNS_11__tree_nodeIiPvEElEEllvEEvRT_T0_, symObjAddr: 0x41680, symBinAddr: 0x10004536C, symSize: 0x38 }
  - { offset: 0x1ADFE, size: 0x8, addend: 0x0, symName: __ZNSt3__1lsB8ne180100INS_11char_traitsIcEEEERNS_13basic_ostreamIcT_EES6_c, symObjAddr: 0x19C, symBinAddr: 0x100003E88, symSize: 0x218 }
  - { offset: 0x1AE49, size: 0x8, addend: 0x0, symName: __ZNSt3__1lsB8ne180100INS_11char_traitsIcEEEERNS_13basic_ostreamIcT_EES6_PKc, symObjAddr: 0x3B4, symBinAddr: 0x1000040A0, symSize: 0x48 }
  - { offset: 0x1AE8F, size: 0x8, addend: 0x0, symName: __ZNSt3__1neB8ne180100IPK3ArcEEbRKNS_11__wrap_iterIT_EES8_, symObjAddr: 0x1214, symBinAddr: 0x100004F00, symSize: 0x34 }
  - { offset: 0x1AED2, size: 0x8, addend: 0x0, symName: __ZNSt3__1neB8ne180100IPK6SommetEEbRKNS_11__wrap_iterIT_EES8_, symObjAddr: 0x3F24, symBinAddr: 0x100007C10, symSize: 0x34 }
  - { offset: 0x1C049, size: 0x8, addend: 0x0, symName: __ZNSt3__1neB8ne180100ERKNS_21__tree_const_iteratorIiPNS_11__tree_nodeIiPvEElEES7_, symObjAddr: 0x8C88, symBinAddr: 0x10000C974, symSize: 0x34 }
  - { offset: 0x1C15A, size: 0x8, addend: 0x0, symName: __ZNSt3__13minB8ne180100IdEERKT_S3_S3_, symObjAddr: 0x915C, symBinAddr: 0x10000CE48, symSize: 0x2C }
  - { offset: 0x1C19D, size: 0x8, addend: 0x0, symName: __ZNSt3__13maxB8ne180100IdEERKT_S3_S3_, symObjAddr: 0x9188, symBinAddr: 0x10000CE74, symSize: 0x2C }
  - { offset: 0x1C48C, size: 0x8, addend: 0x0, symName: __ZNSt3__1neB8ne180100IPNS_6vectorI6SommetNS_9allocatorIS2_EEEEEEbRKNS_11__wrap_iterIT_EESB_, symObjAddr: 0xD7B4, symBinAddr: 0x1000114A0, symSize: 0x34 }
  - { offset: 0x1C4CF, size: 0x8, addend: 0x0, symName: __ZNSt3__14endlB8ne180100IcNS_11char_traitsIcEEEERNS_13basic_ostreamIT_T0_EES7_, symObjAddr: 0xDBBC, symBinAddr: 0x1000118A8, symSize: 0xD4 }
  - { offset: 0x1CD7A, size: 0x8, addend: 0x0, symName: __ZNSt3__1neB8ne180100IP6SommetEEbRKNS_11__wrap_iterIT_EES7_, symObjAddr: 0xE850, symBinAddr: 0x10001253C, symSize: 0x34 }
  - { offset: 0x1CDC8, size: 0x8, addend: 0x0, symName: __ZNSt3__1eqB8ne180100IPK3ArcEEbRKNS_11__wrap_iterIT_EES8_, symObjAddr: 0xECE8, symBinAddr: 0x1000129D4, symSize: 0x48 }
  - { offset: 0x1CE0B, size: 0x8, addend: 0x0, symName: __ZNSt3__1eqB8ne180100IPK6SommetEEbRKNS_11__wrap_iterIT_EES8_, symObjAddr: 0xF2D0, symBinAddr: 0x100012FBC, symSize: 0x48 }
  - { offset: 0x1CE4E, size: 0x8, addend: 0x0, symName: __ZNSt3__1neB8ne180100IP3ArcEEbRKNS_11__wrap_iterIT_EES7_, symObjAddr: 0xFE14, symBinAddr: 0x100013B00, symSize: 0x34 }
  - { offset: 0x1CE91, size: 0x8, addend: 0x0, symName: __ZNSt3__112__to_addressB8ne180100I3ArcEEPT_S3_, symObjAddr: 0x10830, symBinAddr: 0x10001451C, symSize: 0x14 }
  - { offset: 0x1CEC6, size: 0x8, addend: 0x0, symName: __ZNSt3__13maxB8ne180100ImEERKT_S3_S3_, symObjAddr: 0x11DA0, symBinAddr: 0x100015A8C, symSize: 0x2C }
  - { offset: 0x1CF09, size: 0x8, addend: 0x0, symName: __ZNSt3__13minB8ne180100ImEERKT_S3_S3_, symObjAddr: 0x11DCC, symBinAddr: 0x100015AB8, symSize: 0x2C }
  - { offset: 0x1D136, size: 0x8, addend: 0x0, symName: __ZNSt3__13minB8ne180100ImNS_6__lessIvvEEEERKT_S5_S5_T0_, symObjAddr: 0x11E58, symBinAddr: 0x100015B44, symSize: 0x1E0 }
  - { offset: 0x1D20C, size: 0x8, addend: 0x0, symName: __ZNSt3__120__throw_length_errorB8ne180100EPKc, symObjAddr: 0x12148, symBinAddr: 0x100015E34, symSize: 0x68 }
  - { offset: 0x1D234, size: 0x8, addend: 0x0, symName: __ZNSt3__13maxB8ne180100ImNS_6__lessIvvEEEERKT_S5_S5_T0_, symObjAddr: 0x12268, symBinAddr: 0x100015F54, symSize: 0x1E0 }
  - { offset: 0x1D294, size: 0x8, addend: 0x0, symName: __ZNSt3__119__allocate_at_leastB8ne180100INS_9allocatorI3ArcEEEENS_19__allocation_resultINS_16allocator_traitsIT_E7pointerEEERS6_m, symObjAddr: 0x12994, symBinAddr: 0x100016680, symSize: 0x284 }
  - { offset: 0x1D2D9, size: 0x8, addend: 0x0, symName: __ZNSt3__117__libcpp_allocateB8ne180100Emm, symObjAddr: 0x12DB4, symBinAddr: 0x100016AA0, symSize: 0x60 }
  - { offset: 0x1D333, size: 0x8, addend: 0x0, symName: __ZNSt3__124__is_overaligned_for_newB8ne180100Em, symObjAddr: 0x12E14, symBinAddr: 0x100016B00, symSize: 0x20 }
  - { offset: 0x1D361, size: 0x8, addend: 0x0, symName: __ZNSt3__121__libcpp_operator_newB8ne180100IJmSt11align_val_tEEEPvDpT_, symObjAddr: 0x12E34, symBinAddr: 0x100016B20, symSize: 0x2C }
  - { offset: 0x1D3AE, size: 0x8, addend: 0x0, symName: __ZNSt3__121__libcpp_operator_newB8ne180100IJmEEEPvDpT_, symObjAddr: 0x12E60, symBinAddr: 0x100016B4C, symSize: 0x24 }
  - { offset: 0x1D3E7, size: 0x8, addend: 0x0, symName: __ZNSt3__142__uninitialized_allocator_move_if_noexceptB8ne180100INS_9allocatorI3ArcEENS_16reverse_iteratorIPS2_EES6_S2_vEET1_RT_T0_SA_S7_, symObjAddr: 0x12FBC, symBinAddr: 0x100016CA8, symSize: 0x4A0 }
  - { offset: 0x1D471, size: 0x8, addend: 0x0, symName: __ZNSt3__14swapB8ne180100IP3ArcEENS_9enable_ifIXaasr21is_move_constructibleIT_EE5valuesr18is_move_assignableIS4_EE5valueEvE4typeERS4_S7_, symObjAddr: 0x134F4, symBinAddr: 0x1000171E0, symSize: 0x134 }
  - { offset: 0x1D4C2, size: 0x8, addend: 0x0, symName: __ZNSt3__14moveB8ne180100INS_16reverse_iteratorIP3ArcEES4_EET0_T_S6_S5_, symObjAddr: 0x136A8, symBinAddr: 0x100017394, symSize: 0x4B0 }
  - { offset: 0x1D529, size: 0x8, addend: 0x0, symName: __ZNSt3__16__moveB8ne180100INS_17_ClassicAlgPolicyENS_16reverse_iteratorIP3ArcEES5_S5_EENS_4pairIT0_T2_EES7_T1_S8_, symObjAddr: 0x13B58, symBinAddr: 0x100017844, symSize: 0x41C }
  - { offset: 0x1D5A1, size: 0x8, addend: 0x0, symName: __ZNSt3__123__dispatch_copy_or_moveB8ne180100INS_17_ClassicAlgPolicyENS_11__move_loopIS1_EENS_14__move_trivialENS_16reverse_iteratorIP3ArcEES8_S8_EENS_4pairIT2_T4_EESA_T3_SB_, symObjAddr: 0x13F74, symBinAddr: 0x100017C60, symSize: 0x41C }
  - { offset: 0x1D62B, size: 0x8, addend: 0x0, symName: __ZNSt3__121__unwrap_and_dispatchB8ne180100INS_10__overloadINS_11__move_loopINS_17_ClassicAlgPolicyEEENS_14__move_trivialEEENS_16reverse_iteratorIP3ArcEESA_SA_Li0EEENS_4pairIT0_T2_EESC_T1_SD_, symObjAddr: 0x14390, symBinAddr: 0x10001807C, symSize: 0x880 }
  - { offset: 0x1D6CF, size: 0x8, addend: 0x0, symName: __ZNSt3__114__unwrap_rangeB8ne180100INS_16reverse_iteratorIP3ArcEES4_EENS_4pairIT0_S6_EET_S8_, symObjAddr: 0x14C10, symBinAddr: 0x1000188FC, symSize: 0x440 }
  - { offset: 0x1D8D0, size: 0x8, addend: 0x0, symName: __ZNSt3__113__unwrap_iterB8ne180100INS_16reverse_iteratorIP3ArcEENS_18__unwrap_iter_implIS4_Lb0EEELi0EEEDTclsrT0_8__unwrapclsr3stdE7declvalIT_EEEES8_, symObjAddr: 0x15384, symBinAddr: 0x100019070, symSize: 0x2DC }
  - { offset: 0x1D918, size: 0x8, addend: 0x0, symName: __ZNSt3__19make_pairB8ne180100INS_16reverse_iteratorIP3ArcEES4_EENS_4pairINS_18__unwrap_ref_decayIT_E4typeENS6_IT0_E4typeEEEOS7_OSA_, symObjAddr: 0x15660, symBinAddr: 0x10001934C, symSize: 0x38 }
  - { offset: 0x1D967, size: 0x8, addend: 0x0, symName: __ZNSt3__114__rewrap_rangeB8ne180100INS_16reverse_iteratorIP3ArcEES4_EET_S5_T0_, symObjAddr: 0x15698, symBinAddr: 0x100019384, symSize: 0x3CC }
  - { offset: 0x1D9BB, size: 0x8, addend: 0x0, symName: __ZNSt3__113__rewrap_iterB8ne180100INS_16reverse_iteratorIP3ArcEES4_NS_18__unwrap_iter_implIS4_Lb0EEEEET_S7_T0_, symObjAddr: 0x15A64, symBinAddr: 0x100019750, symSize: 0x438 }
  - { offset: 0x1DA18, size: 0x8, addend: 0x0, symName: __ZNSt3__1neB8ne180100IP3ArcS2_EEbRKNS_16reverse_iteratorIT_EERKNS3_IT0_EE, symObjAddr: 0x15E9C, symBinAddr: 0x100019B88, symSize: 0x48 }
  - { offset: 0x1DB96, size: 0x8, addend: 0x0, symName: __ZNSt3__119__libcpp_deallocateB8ne180100EPvmm, symObjAddr: 0x16A8C, symBinAddr: 0x10001A778, symSize: 0x60 }
  - { offset: 0x1DBFB, size: 0x8, addend: 0x0, symName: __ZNSt3__127__do_deallocate_handle_sizeB8ne180100IJSt11align_val_tEEEvPvmDpT_, symObjAddr: 0x16AEC, symBinAddr: 0x10001A7D8, symSize: 0x30 }
  - { offset: 0x1DC4E, size: 0x8, addend: 0x0, symName: __ZNSt3__127__do_deallocate_handle_sizeB8ne180100IJEEEvPvmDpT_, symObjAddr: 0x16B1C, symBinAddr: 0x10001A808, symSize: 0x28 }
  - { offset: 0x1DC8C, size: 0x8, addend: 0x0, symName: __ZNSt3__124__libcpp_operator_deleteB8ne180100IJPvSt11align_val_tEEEvDpT_, symObjAddr: 0x16B44, symBinAddr: 0x10001A830, symSize: 0x2C }
  - { offset: 0x1DCD5, size: 0x8, addend: 0x0, symName: __ZNSt3__124__libcpp_operator_deleteB8ne180100IJPvEEEvDpT_, symObjAddr: 0x16B70, symBinAddr: 0x10001A85C, symSize: 0x24 }
  - { offset: 0x1DD0A, size: 0x8, addend: 0x0, symName: __ZNSt3__1eqB8ne180100IP3ArcEEbRKNS_11__wrap_iterIT_EES7_, symObjAddr: 0x16E78, symBinAddr: 0x10001AB64, symSize: 0x48 }
  - { offset: 0x1DD4D, size: 0x8, addend: 0x0, symName: __ZNSt3__122__make_exception_guardB8ne180100INS_6vectorI3ArcNS_9allocatorIS2_EEE16__destroy_vectorEEENS_28__exception_guard_exceptionsIT_EES8_, symObjAddr: 0x188A4, symBinAddr: 0x10001C590, symSize: 0x268 }
  - { offset: 0x1DD86, size: 0x8, addend: 0x0, symName: __ZNSt3__130__uninitialized_allocator_copyB8ne180100INS_9allocatorI3ArcEEPS2_S4_S4_EET2_RT_T0_T1_S5_, symObjAddr: 0x198B0, symBinAddr: 0x10001D59C, symSize: 0x2D4 }
  - { offset: 0x1DE2C, size: 0x8, addend: 0x0, symName: __ZNSt3__114__unwrap_rangeB8ne180100IP3ArcS2_EENS_4pairIT0_S4_EET_S6_, symObjAddr: 0x19B84, symBinAddr: 0x10001D870, symSize: 0x340 }
  - { offset: 0x1DE7A, size: 0x8, addend: 0x0, symName: __ZNSt3__135__uninitialized_allocator_copy_implB8ne180100INS_9allocatorI3ArcEES2_S2_S2_LPv0EEEPT2_RT_PT0_SA_S6_, symObjAddr: 0x19EC4, symBinAddr: 0x10001DBB0, symSize: 0x38 }
  - { offset: 0x1DEFB, size: 0x8, addend: 0x0, symName: __ZNSt3__113__unwrap_iterB8ne180100IP3ArcNS_18__unwrap_iter_implIS2_Lb1EEELi0EEEDTclsrT0_8__unwrapclsr3stdE7declvalIT_EEEES6_, symObjAddr: 0x19EFC, symBinAddr: 0x10001DBE8, symSize: 0x24 }
  - { offset: 0x1DF3F, size: 0x8, addend: 0x0, symName: __ZNSt3__113__rewrap_iterB8ne180100IP3ArcS2_NS_18__unwrap_iter_implIS2_Lb1EEEEET_S5_T0_, symObjAddr: 0x19F20, symBinAddr: 0x10001DC0C, symSize: 0x48 }
  - { offset: 0x1DF94, size: 0x8, addend: 0x0, symName: __ZNSt3__19make_pairB8ne180100IP3ArcS2_EENS_4pairINS_18__unwrap_ref_decayIT_E4typeENS4_IT0_E4typeEEEOS5_OS8_, symObjAddr: 0x19F68, symBinAddr: 0x10001DC54, symSize: 0x204 }
  - { offset: 0x1E0E8, size: 0x8, addend: 0x0, symName: __ZNSt3__14copyB8ne180100IP3ArcS2_EET0_T_S4_S3_, symObjAddr: 0x1A2E0, symBinAddr: 0x10001DFCC, symSize: 0x264 }
  - { offset: 0x1E145, size: 0x8, addend: 0x0, symName: __ZNSt3__16__copyB8ne180100INS_17_ClassicAlgPolicyEP3ArcS3_S3_EENS_4pairIT0_T2_EES5_T1_S6_, symObjAddr: 0x1A544, symBinAddr: 0x10001E230, symSize: 0x224 }
  - { offset: 0x1E1B4, size: 0x8, addend: 0x0, symName: __ZNSt3__123__dispatch_copy_or_moveB8ne180100INS_17_ClassicAlgPolicyENS_11__copy_loopIS1_EENS_14__copy_trivialEP3ArcS6_S6_EENS_4pairIT2_T4_EES8_T3_S9_, symObjAddr: 0x1A768, symBinAddr: 0x10001E454, symSize: 0x224 }
  - { offset: 0x1E235, size: 0x8, addend: 0x0, symName: __ZNSt3__121__unwrap_and_dispatchB8ne180100INS_10__overloadINS_11__copy_loopINS_17_ClassicAlgPolicyEEENS_14__copy_trivialEEEP3ArcS8_S8_Li0EEENS_4pairIT0_T2_EESA_T1_SB_, symObjAddr: 0x1A98C, symBinAddr: 0x10001E678, symSize: 0x59C }
  - { offset: 0x1E3C8, size: 0x8, addend: 0x0, symName: __ZNSt3__114__rewrap_rangeB8ne180100IP3ArcS2_EET_S3_T0_, symObjAddr: 0x1B150, symBinAddr: 0x10001EE3C, symSize: 0x2C }
  - { offset: 0x1E414, size: 0x8, addend: 0x0, symName: __ZNSt3__119__copy_trivial_implB8ne180100I3ArcS1_EENS_4pairIPT_PT0_EES4_S4_S6_, symObjAddr: 0x1B17C, symBinAddr: 0x10001EE68, symSize: 0x3A4 }
  - { offset: 0x1E483, size: 0x8, addend: 0x0, symName: __ZNSt3__119__constexpr_memmoveB8ne180100I3ArcS1_Li0EEEPT_S3_PT0_NS_15__element_countE, symObjAddr: 0x1B520, symBinAddr: 0x10001F20C, symSize: 0x64 }
  - { offset: 0x1E4F1, size: 0x8, addend: 0x0, symName: __ZNSt3__19make_pairB8ne180100IRP3ArcS2_EENS_4pairINS_18__unwrap_ref_decayIT_E4typeENS5_IT0_E4typeEEEOS6_OS9_, symObjAddr: 0x1B584, symBinAddr: 0x10001F270, symSize: 0x204 }
  - { offset: 0x1E595, size: 0x8, addend: 0x0, symName: __ZNSt3__122__make_exception_guardB8ne180100INS_6vectorIdNS_9allocatorIdEEE16__destroy_vectorEEENS_28__exception_guard_exceptionsIT_EES7_, symObjAddr: 0x1CA18, symBinAddr: 0x100020704, symSize: 0x268 }
  - { offset: 0x1E5CE, size: 0x8, addend: 0x0, symName: __ZNSt3__119__allocate_at_leastB8ne180100INS_9allocatorIdEEEENS_19__allocation_resultINS_16allocator_traitsIT_E7pointerEEERS5_m, symObjAddr: 0x1DD7C, symBinAddr: 0x100021A68, symSize: 0x284 }
  - { offset: 0x1E613, size: 0x8, addend: 0x0, symName: __ZNSt3__112__to_addressB8ne180100IdEEPT_S2_, symObjAddr: 0x1E380, symBinAddr: 0x10002206C, symSize: 0x14 }
  - { offset: 0x1E648, size: 0x8, addend: 0x0, symName: __ZNSt3__130__uninitialized_allocator_copyB8ne180100INS_9allocatorIdEEPdS3_S3_EET2_RT_T0_T1_S4_, symObjAddr: 0x1E430, symBinAddr: 0x10002211C, symSize: 0x2D4 }
  - { offset: 0x1E6EE, size: 0x8, addend: 0x0, symName: __ZNSt3__114__unwrap_rangeB8ne180100IPdS1_EENS_4pairIT0_S3_EET_S5_, symObjAddr: 0x1E998, symBinAddr: 0x100022684, symSize: 0x340 }
  - { offset: 0x1E73C, size: 0x8, addend: 0x0, symName: __ZNSt3__135__uninitialized_allocator_copy_implB8ne180100INS_9allocatorIdEEdddLPv0EEEPT2_RT_PT0_S9_S5_, symObjAddr: 0x1ECD8, symBinAddr: 0x1000229C4, symSize: 0x38 }
  - { offset: 0x1E7BD, size: 0x8, addend: 0x0, symName: __ZNSt3__113__unwrap_iterB8ne180100IPdNS_18__unwrap_iter_implIS1_Lb1EEELi0EEEDTclsrT0_8__unwrapclsr3stdE7declvalIT_EEEES5_, symObjAddr: 0x1ED10, symBinAddr: 0x1000229FC, symSize: 0x24 }
  - { offset: 0x1E801, size: 0x8, addend: 0x0, symName: __ZNSt3__113__rewrap_iterB8ne180100IPdS1_NS_18__unwrap_iter_implIS1_Lb1EEEEET_S4_T0_, symObjAddr: 0x1ED34, symBinAddr: 0x100022A20, symSize: 0x48 }
  - { offset: 0x1E856, size: 0x8, addend: 0x0, symName: __ZNSt3__19make_pairB8ne180100IPdS1_EENS_4pairINS_18__unwrap_ref_decayIT_E4typeENS3_IT0_E4typeEEEOS4_OS7_, symObjAddr: 0x1ED7C, symBinAddr: 0x100022A68, symSize: 0x204 }
  - { offset: 0x1E9AA, size: 0x8, addend: 0x0, symName: __ZNSt3__14copyB8ne180100IPdS1_EET0_T_S3_S2_, symObjAddr: 0x1F0F4, symBinAddr: 0x100022DE0, symSize: 0x264 }
  - { offset: 0x1EA07, size: 0x8, addend: 0x0, symName: __ZNSt3__16__copyB8ne180100INS_17_ClassicAlgPolicyEPdS2_S2_EENS_4pairIT0_T2_EES4_T1_S5_, symObjAddr: 0x1F358, symBinAddr: 0x100023044, symSize: 0x224 }
  - { offset: 0x1EA76, size: 0x8, addend: 0x0, symName: __ZNSt3__123__dispatch_copy_or_moveB8ne180100INS_17_ClassicAlgPolicyENS_11__copy_loopIS1_EENS_14__copy_trivialEPdS5_S5_EENS_4pairIT2_T4_EES7_T3_S8_, symObjAddr: 0x1F57C, symBinAddr: 0x100023268, symSize: 0x224 }
  - { offset: 0x1EAF7, size: 0x8, addend: 0x0, symName: __ZNSt3__121__unwrap_and_dispatchB8ne180100INS_10__overloadINS_11__copy_loopINS_17_ClassicAlgPolicyEEENS_14__copy_trivialEEEPdS7_S7_Li0EEENS_4pairIT0_T2_EES9_T1_SA_, symObjAddr: 0x1F7A0, symBinAddr: 0x10002348C, symSize: 0x59C }
  - { offset: 0x1EB90, size: 0x8, addend: 0x0, symName: __ZNSt3__114__rewrap_rangeB8ne180100IPdS1_EET_S2_T0_, symObjAddr: 0x1FF64, symBinAddr: 0x100023C50, symSize: 0x2C }
  - { offset: 0x1EBDC, size: 0x8, addend: 0x0, symName: __ZNSt3__119__copy_trivial_implB8ne180100IddEENS_4pairIPT_PT0_EES3_S3_S5_, symObjAddr: 0x1FF90, symBinAddr: 0x100023C7C, symSize: 0x3A4 }
  - { offset: 0x1EC4B, size: 0x8, addend: 0x0, symName: __ZNSt3__119__constexpr_memmoveB8ne180100IddLi0EEEPT_S2_PT0_NS_15__element_countE, symObjAddr: 0x20334, symBinAddr: 0x100024020, symSize: 0x64 }
  - { offset: 0x1ECB9, size: 0x8, addend: 0x0, symName: __ZNSt3__19make_pairB8ne180100IRPdS1_EENS_4pairINS_18__unwrap_ref_decayIT_E4typeENS4_IT0_E4typeEEEOS5_OS8_, symObjAddr: 0x20398, symBinAddr: 0x100024084, symSize: 0x204 }
  - { offset: 0x1ED5D, size: 0x8, addend: 0x0, symName: __ZNSt3__13minB8ne180100IdNS_6__lessIvvEEEERKT_S5_S5_T0_, symObjAddr: 0x2102C, symBinAddr: 0x100024D18, symSize: 0x1E0 }
  - { offset: 0x1EDBD, size: 0x8, addend: 0x0, symName: __ZNSt3__13maxB8ne180100IdNS_6__lessIvvEEEERKT_S5_S5_T0_, symObjAddr: 0x212C8, symBinAddr: 0x100024FB4, symSize: 0x1E0 }
  - { offset: 0x1EE1D, size: 0x8, addend: 0x0, symName: __ZNSt3__118__constexpr_strlenB8ne180100EPKc, symObjAddr: 0x2181C, symBinAddr: 0x100025508, symSize: 0x24 }
  - { offset: 0x1EE49, size: 0x8, addend: 0x0, symName: __ZNSt3__1eqB8ne180100IPNS_6vectorI6SommetNS_9allocatorIS2_EEEEEEbRKNS_11__wrap_iterIT_EESB_, symObjAddr: 0x218FC, symBinAddr: 0x1000255E8, symSize: 0x48 }
  - { offset: 0x1EE8C, size: 0x8, addend: 0x0, symName: __ZNSt3__112__to_addressB8ne180100I6SommetEEPT_S3_, symObjAddr: 0x2233C, symBinAddr: 0x100026028, symSize: 0x14 }
  - { offset: 0x1EEC1, size: 0x8, addend: 0x0, symName: __ZNSt3__1eqB8ne180100IP6SommetEEbRKNS_11__wrap_iterIT_EES7_, symObjAddr: 0x22A1C, symBinAddr: 0x100026708, symSize: 0x48 }
  - { offset: 0x1EF04, size: 0x8, addend: 0x0, symName: __ZNSt3__116__pad_and_outputB8ne180100IcNS_11char_traitsIcEEEENS_19ostreambuf_iteratorIT_T0_EES6_PKS4_S8_S8_RNS_8ios_baseES4_, symObjAddr: 0x235CC, symBinAddr: 0x1000272B8, symSize: 0x7CC }
  - { offset: 0x1EFE1, size: 0x8, addend: 0x0, symName: __ZNSt3__112__to_addressB8ne180100IcEEPT_S2_, symObjAddr: 0x244CC, symBinAddr: 0x1000281B8, symSize: 0x14 }
  - { offset: 0x1F049, size: 0x8, addend: 0x0, symName: __ZNSt3__19use_facetB8ne180100INS_5ctypeIcEEEERKT_RKNS_6localeE, symObjAddr: 0x24B70, symBinAddr: 0x10002885C, symSize: 0x2C }
  - { offset: 0x1F549, size: 0x8, addend: 0x0, symName: __ZNSt3__112__destroy_atB8ne180100IiLi0EEEvPT_, symObjAddr: 0x25884, symBinAddr: 0x100029570, symSize: 0x10 }
  - { offset: 0x1F59E, size: 0x8, addend: 0x0, symName: __ZNSt3__127__tree_balance_after_insertB8ne180100IPNS_16__tree_node_baseIPvEEEEvT_S5_, symObjAddr: 0x27738, symBinAddr: 0x10002B424, symSize: 0x960 }
  - { offset: 0x1F612, size: 0x8, addend: 0x0, symName: __ZNSt3__120__tree_is_left_childB8ne180100IPNS_16__tree_node_baseIPvEEEEbT_, symObjAddr: 0x28124, symBinAddr: 0x10002BE10, symSize: 0xB8 }
  - { offset: 0x1F647, size: 0x8, addend: 0x0, symName: __ZNSt3__118__tree_left_rotateB8ne180100IPNS_16__tree_node_baseIPvEEEEvT_, symObjAddr: 0x281DC, symBinAddr: 0x10002BEC8, symSize: 0x374 }
  - { offset: 0x1F686, size: 0x8, addend: 0x0, symName: __ZNSt3__119__tree_right_rotateB8ne180100IPNS_16__tree_node_baseIPvEEEEvT_, symObjAddr: 0x28550, symBinAddr: 0x10002C23C, symSize: 0x354 }
  - { offset: 0x1F6C8, size: 0x8, addend: 0x0, symName: __ZNSt3__112__to_addressB8ne180100IiEEPT_S2_, symObjAddr: 0x29D48, symBinAddr: 0x10002DA34, symSize: 0x14 }
  - { offset: 0x1F6FD, size: 0x8, addend: 0x0, symName: __ZNSt3__122__make_exception_guardB8ne180100INS_6vectorI6SommetNS_9allocatorIS2_EEE16__destroy_vectorEEENS_28__exception_guard_exceptionsIT_EES8_, symObjAddr: 0x2AA40, symBinAddr: 0x10002E72C, symSize: 0x268 }
  - { offset: 0x1F736, size: 0x8, addend: 0x0, symName: __ZNSt3__119__allocate_at_leastB8ne180100INS_9allocatorI6SommetEEEENS_19__allocation_resultINS_16allocator_traitsIT_E7pointerEEERS6_m, symObjAddr: 0x2BDA4, symBinAddr: 0x10002FA90, symSize: 0x284 }
  - { offset: 0x1F77B, size: 0x8, addend: 0x0, symName: __ZNSt3__130__uninitialized_allocator_copyB8ne180100INS_9allocatorI6SommetEEPS2_S4_S4_EET2_RT_T0_T1_S5_, symObjAddr: 0x2C1D8, symBinAddr: 0x10002FEC4, symSize: 0x2D4 }
  - { offset: 0x1F821, size: 0x8, addend: 0x0, symName: __ZNSt3__114__unwrap_rangeB8ne180100IP6SommetS2_EENS_4pairIT0_S4_EET_S6_, symObjAddr: 0x2C740, symBinAddr: 0x10003042C, symSize: 0x340 }
  - { offset: 0x1F86F, size: 0x8, addend: 0x0, symName: __ZNSt3__135__uninitialized_allocator_copy_implB8ne180100INS_9allocatorI6SommetEES2_S2_S2_LPv0EEEPT2_RT_PT0_SA_S6_, symObjAddr: 0x2CA80, symBinAddr: 0x10003076C, symSize: 0x38 }
  - { offset: 0x1F8F0, size: 0x8, addend: 0x0, symName: __ZNSt3__113__unwrap_iterB8ne180100IP6SommetNS_18__unwrap_iter_implIS2_Lb1EEELi0EEEDTclsrT0_8__unwrapclsr3stdE7declvalIT_EEEES6_, symObjAddr: 0x2CAB8, symBinAddr: 0x1000307A4, symSize: 0x24 }
  - { offset: 0x1F934, size: 0x8, addend: 0x0, symName: __ZNSt3__113__rewrap_iterB8ne180100IP6SommetS2_NS_18__unwrap_iter_implIS2_Lb1EEEEET_S5_T0_, symObjAddr: 0x2CADC, symBinAddr: 0x1000307C8, symSize: 0x48 }
  - { offset: 0x1F989, size: 0x8, addend: 0x0, symName: __ZNSt3__19make_pairB8ne180100IP6SommetS2_EENS_4pairINS_18__unwrap_ref_decayIT_E4typeENS4_IT0_E4typeEEEOS5_OS8_, symObjAddr: 0x2CB24, symBinAddr: 0x100030810, symSize: 0x204 }
  - { offset: 0x1FADD, size: 0x8, addend: 0x0, symName: __ZNSt3__14copyB8ne180100IP6SommetS2_EET0_T_S4_S3_, symObjAddr: 0x2CE9C, symBinAddr: 0x100030B88, symSize: 0x264 }
  - { offset: 0x1FB3A, size: 0x8, addend: 0x0, symName: __ZNSt3__16__copyB8ne180100INS_17_ClassicAlgPolicyEP6SommetS3_S3_EENS_4pairIT0_T2_EES5_T1_S6_, symObjAddr: 0x2D100, symBinAddr: 0x100030DEC, symSize: 0x224 }
  - { offset: 0x1FBA9, size: 0x8, addend: 0x0, symName: __ZNSt3__123__dispatch_copy_or_moveB8ne180100INS_17_ClassicAlgPolicyENS_11__copy_loopIS1_EENS_14__copy_trivialEP6SommetS6_S6_EENS_4pairIT2_T4_EES8_T3_S9_, symObjAddr: 0x2D324, symBinAddr: 0x100031010, symSize: 0x224 }
  - { offset: 0x1FC2A, size: 0x8, addend: 0x0, symName: __ZNSt3__121__unwrap_and_dispatchB8ne180100INS_10__overloadINS_11__copy_loopINS_17_ClassicAlgPolicyEEENS_14__copy_trivialEEEP6SommetS8_S8_Li0EEENS_4pairIT0_T2_EESA_T1_SB_, symObjAddr: 0x2D548, symBinAddr: 0x100031234, symSize: 0x59C }
  - { offset: 0x1FCC3, size: 0x8, addend: 0x0, symName: __ZNSt3__114__rewrap_rangeB8ne180100IP6SommetS2_EET_S3_T0_, symObjAddr: 0x2DD0C, symBinAddr: 0x1000319F8, symSize: 0x2C }
  - { offset: 0x1FD0F, size: 0x8, addend: 0x0, symName: __ZNSt3__119__copy_trivial_implB8ne180100I6SommetS1_EENS_4pairIPT_PT0_EES4_S4_S6_, symObjAddr: 0x2DD38, symBinAddr: 0x100031A24, symSize: 0x3A4 }
  - { offset: 0x1FD7E, size: 0x8, addend: 0x0, symName: __ZNSt3__119__constexpr_memmoveB8ne180100I6SommetS1_Li0EEEPT_S3_PT0_NS_15__element_countE, symObjAddr: 0x2E0DC, symBinAddr: 0x100031DC8, symSize: 0x64 }
  - { offset: 0x1FDEC, size: 0x8, addend: 0x0, symName: __ZNSt3__19make_pairB8ne180100IRP6SommetS2_EENS_4pairINS_18__unwrap_ref_decayIT_E4typeENS5_IT0_E4typeEEEOS6_OS9_, symObjAddr: 0x2E140, symBinAddr: 0x100031E2C, symSize: 0x204 }
  - { offset: 0x1FE90, size: 0x8, addend: 0x0, symName: __ZNSt3__142__uninitialized_allocator_move_if_noexceptB8ne180100INS_9allocatorI6SommetEENS_16reverse_iteratorIPS2_EES6_S2_vEET1_RT_T0_SA_S7_, symObjAddr: 0x30A38, symBinAddr: 0x100034724, symSize: 0x4A0 }
  - { offset: 0x1FF1A, size: 0x8, addend: 0x0, symName: __ZNSt3__14swapB8ne180100IP6SommetEENS_9enable_ifIXaasr21is_move_constructibleIT_EE5valuesr18is_move_assignableIS4_EE5valueEvE4typeERS4_S7_, symObjAddr: 0x30F70, symBinAddr: 0x100034C5C, symSize: 0x134 }
  - { offset: 0x1FF6B, size: 0x8, addend: 0x0, symName: __ZNSt3__14moveB8ne180100INS_16reverse_iteratorIP6SommetEES4_EET0_T_S6_S5_, symObjAddr: 0x310A4, symBinAddr: 0x100034D90, symSize: 0x4B0 }
  - { offset: 0x1FFD2, size: 0x8, addend: 0x0, symName: __ZNSt3__16__moveB8ne180100INS_17_ClassicAlgPolicyENS_16reverse_iteratorIP6SommetEES5_S5_EENS_4pairIT0_T2_EES7_T1_S8_, symObjAddr: 0x31554, symBinAddr: 0x100035240, symSize: 0x41C }
  - { offset: 0x2004A, size: 0x8, addend: 0x0, symName: __ZNSt3__123__dispatch_copy_or_moveB8ne180100INS_17_ClassicAlgPolicyENS_11__move_loopIS1_EENS_14__move_trivialENS_16reverse_iteratorIP6SommetEES8_S8_EENS_4pairIT2_T4_EESA_T3_SB_, symObjAddr: 0x31970, symBinAddr: 0x10003565C, symSize: 0x41C }
  - { offset: 0x200D4, size: 0x8, addend: 0x0, symName: __ZNSt3__121__unwrap_and_dispatchB8ne180100INS_10__overloadINS_11__move_loopINS_17_ClassicAlgPolicyEEENS_14__move_trivialEEENS_16reverse_iteratorIP6SommetEESA_SA_Li0EEENS_4pairIT0_T2_EESC_T1_SD_, symObjAddr: 0x31D8C, symBinAddr: 0x100035A78, symSize: 0x880 }
  - { offset: 0x20178, size: 0x8, addend: 0x0, symName: __ZNSt3__114__unwrap_rangeB8ne180100INS_16reverse_iteratorIP6SommetEES4_EENS_4pairIT0_S6_EET_S8_, symObjAddr: 0x3260C, symBinAddr: 0x1000362F8, symSize: 0x440 }
  - { offset: 0x202A0, size: 0x8, addend: 0x0, symName: __ZNSt3__113__unwrap_iterB8ne180100INS_16reverse_iteratorIP6SommetEENS_18__unwrap_iter_implIS4_Lb0EEELi0EEEDTclsrT0_8__unwrapclsr3stdE7declvalIT_EEEES8_, symObjAddr: 0x32D80, symBinAddr: 0x100036A6C, symSize: 0x2DC }
  - { offset: 0x202E8, size: 0x8, addend: 0x0, symName: __ZNSt3__19make_pairB8ne180100INS_16reverse_iteratorIP6SommetEES4_EENS_4pairINS_18__unwrap_ref_decayIT_E4typeENS6_IT0_E4typeEEEOS7_OSA_, symObjAddr: 0x3305C, symBinAddr: 0x100036D48, symSize: 0x38 }
  - { offset: 0x20337, size: 0x8, addend: 0x0, symName: __ZNSt3__114__rewrap_rangeB8ne180100INS_16reverse_iteratorIP6SommetEES4_EET_S5_T0_, symObjAddr: 0x33094, symBinAddr: 0x100036D80, symSize: 0x3CC }
  - { offset: 0x2038B, size: 0x8, addend: 0x0, symName: __ZNSt3__113__rewrap_iterB8ne180100INS_16reverse_iteratorIP6SommetEES4_NS_18__unwrap_iter_implIS4_Lb0EEEEET_S7_T0_, symObjAddr: 0x33460, symBinAddr: 0x10003714C, symSize: 0x438 }
  - { offset: 0x203E8, size: 0x8, addend: 0x0, symName: __ZNSt3__1neB8ne180100IP6SommetS2_EEbRKNS_16reverse_iteratorIT_EERKNS3_IT0_EE, symObjAddr: 0x33898, symBinAddr: 0x100037584, symSize: 0x48 }
  - { offset: 0x20487, size: 0x8, addend: 0x0, symName: __ZNSt3__122__make_exception_guardB8ne180100INS_6vectorIiNS_9allocatorIiEEE16__destroy_vectorEEENS_28__exception_guard_exceptionsIT_EES7_, symObjAddr: 0x35240, symBinAddr: 0x100038F2C, symSize: 0x268 }
  - { offset: 0x204C0, size: 0x8, addend: 0x0, symName: __ZNSt3__119__allocate_at_leastB8ne180100INS_9allocatorIiEEEENS_19__allocation_resultINS_16allocator_traitsIT_E7pointerEEERS5_m, symObjAddr: 0x36678, symBinAddr: 0x10003A364, symSize: 0x284 }
  - { offset: 0x20505, size: 0x8, addend: 0x0, symName: __ZNSt3__130__uninitialized_allocator_copyB8ne180100INS_9allocatorIiEEPiS3_S3_EET2_RT_T0_T1_S4_, symObjAddr: 0x37FDC, symBinAddr: 0x10003BCC8, symSize: 0x2D4 }
  - { offset: 0x205AB, size: 0x8, addend: 0x0, symName: __ZNSt3__114__unwrap_rangeB8ne180100IPiS1_EENS_4pairIT0_S3_EET_S5_, symObjAddr: 0x382B0, symBinAddr: 0x10003BF9C, symSize: 0x340 }
  - { offset: 0x205F9, size: 0x8, addend: 0x0, symName: __ZNSt3__135__uninitialized_allocator_copy_implB8ne180100INS_9allocatorIiEEiiiLPv0EEEPT2_RT_PT0_S9_S5_, symObjAddr: 0x385F0, symBinAddr: 0x10003C2DC, symSize: 0x38 }
  - { offset: 0x2067A, size: 0x8, addend: 0x0, symName: __ZNSt3__113__unwrap_iterB8ne180100IPiNS_18__unwrap_iter_implIS1_Lb1EEELi0EEEDTclsrT0_8__unwrapclsr3stdE7declvalIT_EEEES5_, symObjAddr: 0x38628, symBinAddr: 0x10003C314, symSize: 0x24 }
  - { offset: 0x206BE, size: 0x8, addend: 0x0, symName: __ZNSt3__113__rewrap_iterB8ne180100IPiS1_NS_18__unwrap_iter_implIS1_Lb1EEEEET_S4_T0_, symObjAddr: 0x3864C, symBinAddr: 0x10003C338, symSize: 0x48 }
  - { offset: 0x20713, size: 0x8, addend: 0x0, symName: __ZNSt3__19make_pairB8ne180100IPiS1_EENS_4pairINS_18__unwrap_ref_decayIT_E4typeENS3_IT0_E4typeEEEOS4_OS7_, symObjAddr: 0x38694, symBinAddr: 0x10003C380, symSize: 0x204 }
  - { offset: 0x20867, size: 0x8, addend: 0x0, symName: __ZNSt3__14copyB8ne180100IPiS1_EET0_T_S3_S2_, symObjAddr: 0x38A0C, symBinAddr: 0x10003C6F8, symSize: 0x264 }
  - { offset: 0x208C4, size: 0x8, addend: 0x0, symName: __ZNSt3__16__copyB8ne180100INS_17_ClassicAlgPolicyEPiS2_S2_EENS_4pairIT0_T2_EES4_T1_S5_, symObjAddr: 0x38C70, symBinAddr: 0x10003C95C, symSize: 0x224 }
  - { offset: 0x20933, size: 0x8, addend: 0x0, symName: __ZNSt3__123__dispatch_copy_or_moveB8ne180100INS_17_ClassicAlgPolicyENS_11__copy_loopIS1_EENS_14__copy_trivialEPiS5_S5_EENS_4pairIT2_T4_EES7_T3_S8_, symObjAddr: 0x38E94, symBinAddr: 0x10003CB80, symSize: 0x224 }
  - { offset: 0x209B4, size: 0x8, addend: 0x0, symName: __ZNSt3__121__unwrap_and_dispatchB8ne180100INS_10__overloadINS_11__copy_loopINS_17_ClassicAlgPolicyEEENS_14__copy_trivialEEEPiS7_S7_Li0EEENS_4pairIT0_T2_EES9_T1_SA_, symObjAddr: 0x390B8, symBinAddr: 0x10003CDA4, symSize: 0x59C }
  - { offset: 0x20A4D, size: 0x8, addend: 0x0, symName: __ZNSt3__114__rewrap_rangeB8ne180100IPiS1_EET_S2_T0_, symObjAddr: 0x3987C, symBinAddr: 0x10003D568, symSize: 0x2C }
  - { offset: 0x20A99, size: 0x8, addend: 0x0, symName: __ZNSt3__119__copy_trivial_implB8ne180100IiiEENS_4pairIPT_PT0_EES3_S3_S5_, symObjAddr: 0x398A8, symBinAddr: 0x10003D594, symSize: 0x3A4 }
  - { offset: 0x20B08, size: 0x8, addend: 0x0, symName: __ZNSt3__119__constexpr_memmoveB8ne180100IiiLi0EEEPT_S2_PT0_NS_15__element_countE, symObjAddr: 0x39C4C, symBinAddr: 0x10003D938, symSize: 0x64 }
  - { offset: 0x20B76, size: 0x8, addend: 0x0, symName: __ZNSt3__19make_pairB8ne180100IRPiS1_EENS_4pairINS_18__unwrap_ref_decayIT_E4typeENS4_IT0_E4typeEEEOS5_OS8_, symObjAddr: 0x39CB0, symBinAddr: 0x10003D99C, symSize: 0x204 }
  - { offset: 0x20C1A, size: 0x8, addend: 0x0, symName: __ZNSt3__122__make_exception_guardB8ne180100INS_6vectorINS1_IdNS_9allocatorIdEEEENS2_IS4_EEE16__destroy_vectorEEENS_28__exception_guard_exceptionsIT_EES9_, symObjAddr: 0x3B280, symBinAddr: 0x10003EF6C, symSize: 0x268 }
  - { offset: 0x20C53, size: 0x8, addend: 0x0, symName: __ZNSt3__119__allocate_at_leastB8ne180100INS_9allocatorINS_6vectorIdNS1_IdEEEEEEEENS_19__allocation_resultINS_16allocator_traitsIT_E7pointerEEERS8_m, symObjAddr: 0x3C76C, symBinAddr: 0x100040458, symSize: 0x284 }
  - { offset: 0x20C98, size: 0x8, addend: 0x0, symName: __ZNSt3__112__to_addressB8ne180100INS_6vectorIdNS_9allocatorIdEEEEEEPT_S6_, symObjAddr: 0x3CDF4, symBinAddr: 0x100040AE0, symSize: 0x14 }
  - { offset: 0x20CCD, size: 0x8, addend: 0x0, symName: __ZNSt3__1eqB8ne180100ERKNS_21__tree_const_iteratorIiPNS_11__tree_nodeIiPvEElEES7_, symObjAddr: 0x40BB0, symBinAddr: 0x10004489C, symSize: 0xB8 }
  - { offset: 0x20D0A, size: 0x8, addend: 0x0, symName: __ZNSt3__14nextB8ne180100INS_21__tree_const_iteratorIiPNS_11__tree_nodeIiPvEElEELi0EEET_S7_NS_15iterator_traitsIS7_E15difference_typeE, symObjAddr: 0x4113C, symBinAddr: 0x100044E28, symSize: 0x278 }
  - { offset: 0x20D58, size: 0x8, addend: 0x0, symName: __ZNSt3__116__tree_prev_iterB8ne180100IPNS_16__tree_node_baseIPvEEPNS_15__tree_end_nodeIS4_EEEET_T0_, symObjAddr: 0x414B8, symBinAddr: 0x1000451A4, symSize: 0xFC }
  - { offset: 0x20DA4, size: 0x8, addend: 0x0, symName: __ZNSt3__110__tree_maxB8ne180100IPNS_16__tree_node_baseIPvEEEET_S5_, symObjAddr: 0x415B4, symBinAddr: 0x1000452A0, symSize: 0xCC }
  - { offset: 0x20DD9, size: 0x8, addend: 0x0, symName: __ZNSt3__121__convert_to_integralB8ne180100El, symObjAddr: 0x416B8, symBinAddr: 0x1000453A4, symSize: 0x14 }
  - { offset: 0x20E05, size: 0x8, addend: 0x0, symName: __ZNSt3__19__advanceB8ne180100INS_21__tree_const_iteratorIiPNS_11__tree_nodeIiPvEElEEEEvRT_NS_15iterator_traitsIS7_E15difference_typeENS_26bidirectional_iterator_tagE, symObjAddr: 0x416CC, symBinAddr: 0x1000453B8, symSize: 0xA4 }
  - { offset: 0x20E4E, size: 0x8, addend: 0x0, symName: __ZNSt3__116__tree_next_iterB8ne180100IPNS_15__tree_end_nodeIPNS_16__tree_node_baseIPvEEEES5_EET_T0_, symObjAddr: 0x41770, symBinAddr: 0x10004545C, symSize: 0x134 }
  - { offset: 0x20E8C, size: 0x8, addend: 0x0, symName: __ZNSt3__110__tree_minB8ne180100IPNS_16__tree_node_baseIPvEEEET_S5_, symObjAddr: 0x418A4, symBinAddr: 0x100045590, symSize: 0xC4 }
  - { offset: 0x20EC1, size: 0x8, addend: 0x0, symName: __ZNSt3__1eqB8ne180100ERKNS_15__tree_iteratorIiPNS_11__tree_nodeIiPvEElEES7_, symObjAddr: 0x42180, symBinAddr: 0x100045E6C, symSize: 0xB8 }
  - { offset: 0x20EFE, size: 0x8, addend: 0x0, symName: __ZNSt3__1neB8ne180100ERKNS_15__tree_iteratorIiPNS_11__tree_nodeIiPvEElEES7_, symObjAddr: 0x42810, symBinAddr: 0x1000464FC, symSize: 0x34 }
  - { offset: 0x20F3B, size: 0x8, addend: 0x0, symName: __ZNSt3__113__tree_removeB8ne180100IPNS_16__tree_node_baseIPvEEEEvT_S5_, symObjAddr: 0x42D4C, symBinAddr: 0x100046A38, symSize: 0x1ED4 }
  - { offset: 0x20FB9, size: 0x8, addend: 0x0, symName: __ZNSt3__111__tree_nextB8ne180100IPNS_16__tree_node_baseIPvEEEET_S5_, symObjAddr: 0x44C20, symBinAddr: 0x10004890C, symSize: 0xFC }
  - { offset: 0x20FEE, size: 0x8, addend: 0x0, symName: __ZNSt3__142__uninitialized_allocator_move_if_noexceptB8ne180100INS_9allocatorIdEENS_16reverse_iteratorIPdEES5_dvEET1_RT_T0_S9_S6_, symObjAddr: 0x46ADC, symBinAddr: 0x10004A7C8, symSize: 0x4A0 }
  - { offset: 0x21078, size: 0x8, addend: 0x0, symName: __ZNSt3__14swapB8ne180100IPdEENS_9enable_ifIXaasr21is_move_constructibleIT_EE5valuesr18is_move_assignableIS3_EE5valueEvE4typeERS3_S6_, symObjAddr: 0x47014, symBinAddr: 0x10004AD00, symSize: 0x134 }
  - { offset: 0x210C9, size: 0x8, addend: 0x0, symName: __ZNSt3__14moveB8ne180100INS_16reverse_iteratorIPdEES3_EET0_T_S5_S4_, symObjAddr: 0x47148, symBinAddr: 0x10004AE34, symSize: 0x4B0 }
  - { offset: 0x21130, size: 0x8, addend: 0x0, symName: __ZNSt3__16__moveB8ne180100INS_17_ClassicAlgPolicyENS_16reverse_iteratorIPdEES4_S4_EENS_4pairIT0_T2_EES6_T1_S7_, symObjAddr: 0x475F8, symBinAddr: 0x10004B2E4, symSize: 0x41C }
  - { offset: 0x211A8, size: 0x8, addend: 0x0, symName: __ZNSt3__123__dispatch_copy_or_moveB8ne180100INS_17_ClassicAlgPolicyENS_11__move_loopIS1_EENS_14__move_trivialENS_16reverse_iteratorIPdEES7_S7_EENS_4pairIT2_T4_EES9_T3_SA_, symObjAddr: 0x47A14, symBinAddr: 0x10004B700, symSize: 0x41C }
  - { offset: 0x21232, size: 0x8, addend: 0x0, symName: __ZNSt3__121__unwrap_and_dispatchB8ne180100INS_10__overloadINS_11__move_loopINS_17_ClassicAlgPolicyEEENS_14__move_trivialEEENS_16reverse_iteratorIPdEES9_S9_Li0EEENS_4pairIT0_T2_EESB_T1_SC_, symObjAddr: 0x47E30, symBinAddr: 0x10004BB1C, symSize: 0x880 }
  - { offset: 0x212D6, size: 0x8, addend: 0x0, symName: __ZNSt3__114__unwrap_rangeB8ne180100INS_16reverse_iteratorIPdEES3_EENS_4pairIT0_S5_EET_S7_, symObjAddr: 0x486B0, symBinAddr: 0x10004C39C, symSize: 0x440 }
  - { offset: 0x213FE, size: 0x8, addend: 0x0, symName: __ZNSt3__113__unwrap_iterB8ne180100INS_16reverse_iteratorIPdEENS_18__unwrap_iter_implIS3_Lb0EEELi0EEEDTclsrT0_8__unwrapclsr3stdE7declvalIT_EEEES7_, symObjAddr: 0x48E88, symBinAddr: 0x10004CB74, symSize: 0x2DC }
  - { offset: 0x21446, size: 0x8, addend: 0x0, symName: __ZNSt3__19make_pairB8ne180100INS_16reverse_iteratorIPdEES3_EENS_4pairINS_18__unwrap_ref_decayIT_E4typeENS5_IT0_E4typeEEEOS6_OS9_, symObjAddr: 0x49164, symBinAddr: 0x10004CE50, symSize: 0x38 }
  - { offset: 0x21495, size: 0x8, addend: 0x0, symName: __ZNSt3__114__rewrap_rangeB8ne180100INS_16reverse_iteratorIPdEES3_EET_S4_T0_, symObjAddr: 0x4919C, symBinAddr: 0x10004CE88, symSize: 0x3CC }
  - { offset: 0x214E9, size: 0x8, addend: 0x0, symName: __ZNSt3__113__rewrap_iterB8ne180100INS_16reverse_iteratorIPdEES3_NS_18__unwrap_iter_implIS3_Lb0EEEEET_S6_T0_, symObjAddr: 0x49568, symBinAddr: 0x10004D254, symSize: 0x438 }
  - { offset: 0x21546, size: 0x8, addend: 0x0, symName: __ZNSt3__1neB8ne180100IPdS1_EEbRKNS_16reverse_iteratorIT_EERKNS2_IT0_EE, symObjAddr: 0x499A0, symBinAddr: 0x10004D68C, symSize: 0x48 }
  - { offset: 0x21794, size: 0x8, addend: 0x0, symName: __ZNSt3__118generate_canonicalB8ne180100IdLm53ENS_23mersenne_twister_engineIjLm32ELm624ELm397ELm31ELj2567483615ELm11ELj4294967295ELm7ELj2636928640ELm15ELj4022730752ELm18ELj1812433253EEEEET_RT1_, symObjAddr: 0x4B1B8, symBinAddr: 0x10004EEA4, symSize: 0x118 }
  - { offset: 0x2185A, size: 0x8, addend: 0x0, symName: __ZNSt3__112__to_addressB8ne180100I8ObstacleEEPT_S3_, symObjAddr: 0x4C560, symBinAddr: 0x10005024C, symSize: 0x14 }
  - { offset: 0x2188F, size: 0x8, addend: 0x0, symName: __ZNSt3__112__to_addressB8ne180100INS_6vectorI6SommetNS_9allocatorIS2_EEEEEEPT_S7_, symObjAddr: 0x4D444, symBinAddr: 0x100051130, symSize: 0x14 }
  - { offset: 0x218C4, size: 0x8, addend: 0x0, symName: __ZNSt3__119__allocate_at_leastB8ne180100INS_9allocatorINS_6vectorI6SommetNS1_IS3_EEEEEEEENS_19__allocation_resultINS_16allocator_traitsIT_E7pointerEEERS9_m, symObjAddr: 0x4FE98, symBinAddr: 0x100053B84, symSize: 0x284 }
  - { offset: 0x21909, size: 0x8, addend: 0x0, symName: __ZNSt3__142__uninitialized_allocator_move_if_noexceptB8ne180100INS_9allocatorINS_6vectorI6SommetNS1_IS3_EEEEEENS_16reverse_iteratorIPS5_EES9_S9_EET2_RT_T0_T1_SA_, symObjAddr: 0x50330, symBinAddr: 0x10005401C, symSize: 0x58C }
  - { offset: 0x219BE, size: 0x8, addend: 0x0, symName: __ZNSt3__14swapB8ne180100IPNS_6vectorI6SommetNS_9allocatorIS2_EEEEEENS_9enable_ifIXaasr21is_move_constructibleIT_EE5valuesr18is_move_assignableIS8_EE5valueEvE4typeERS8_SB_, symObjAddr: 0x50954, symBinAddr: 0x100054640, symSize: 0x134 }
  - { offset: 0x21A0F, size: 0x8, addend: 0x0, symName: __ZNSt3__122__make_exception_guardB8ne180100INS_29_AllocatorDestroyRangeReverseINS_9allocatorINS_6vectorI6SommetNS2_IS4_EEEEEENS_16reverse_iteratorIPS6_EEEEEENS_28__exception_guard_exceptionsIT_EESD_, symObjAddr: 0x50B1C, symBinAddr: 0x100054808, symSize: 0x1E8 }
  - { offset: 0x21A46, size: 0x8, addend: 0x0, symName: __ZNSt3__1neB8ne180100IPNS_6vectorI6SommetNS_9allocatorIS2_EEEES6_EEbRKNS_16reverse_iteratorIT_EERKNS7_IT0_EE, symObjAddr: 0x50D48, symBinAddr: 0x100054A34, symSize: 0x48 }
  - { offset: 0x21A92, size: 0x8, addend: 0x0, symName: __ZNSt3__112__to_addressB8ne180100INS_16reverse_iteratorIPNS_6vectorI6SommetNS_9allocatorIS3_EEEEEEvEEu7__decayIDTclsr19__to_address_helperIT_EE6__callclsr3stdE7declvalIRKS9_EEEEESB_, symObjAddr: 0x50DC4, symBinAddr: 0x100054AB0, symSize: 0x24 }
  - { offset: 0x21AF1, size: 0x8, addend: 0x0, symName: __ZNSt3__119__allocator_destroyB8ne180100INS_9allocatorINS_6vectorI6SommetNS1_IS3_EEEEEENS_16reverse_iteratorINS7_IPS5_EEEESA_EEvRT_T0_T1_, symObjAddr: 0x51BE0, symBinAddr: 0x1000558CC, symSize: 0x70 }
  - { offset: 0x21B56, size: 0x8, addend: 0x0, symName: __ZNSt3__1neB8ne180100INS_16reverse_iteratorIPNS_6vectorI6SommetNS_9allocatorIS3_EEEEEES8_EEbRKNS1_IT_EERKNS1_IT0_EE, symObjAddr: 0x51E90, symBinAddr: 0x100055B7C, symSize: 0x2BC }
  - { offset: 0x21BA4, size: 0x8, addend: 0x0, symName: __ZNSt3__112__to_addressB8ne180100INS_16reverse_iteratorINS1_IPNS_6vectorI6SommetNS_9allocatorIS3_EEEEEEEEvEEu7__decayIDTclsr19__to_address_helperIT_EE6__callclsr3stdE7declvalIRKSA_EEEEESC_, symObjAddr: 0x5214C, symBinAddr: 0x100055E38, symSize: 0x24 }
  - { offset: 0x21C03, size: 0x8, addend: 0x0, symName: __ZNSt3__119__allocate_at_leastB8ne180100INS_9allocatorI8ObstacleEEEENS_19__allocation_resultINS_16allocator_traitsIT_E7pointerEEERS6_m, symObjAddr: 0x54E7C, symBinAddr: 0x100058B68, symSize: 0x284 }
  - { offset: 0x21C48, size: 0x8, addend: 0x0, symName: __ZNSt3__142__uninitialized_allocator_move_if_noexceptB8ne180100INS_9allocatorI8ObstacleEENS_16reverse_iteratorIPS2_EES6_S6_EET2_RT_T0_T1_S7_, symObjAddr: 0x55314, symBinAddr: 0x100059000, symSize: 0x58C }
  - { offset: 0x21CFD, size: 0x8, addend: 0x0, symName: __ZNSt3__14swapB8ne180100IP8ObstacleEENS_9enable_ifIXaasr21is_move_constructibleIT_EE5valuesr18is_move_assignableIS4_EE5valueEvE4typeERS4_S7_, symObjAddr: 0x55938, symBinAddr: 0x100059624, symSize: 0x134 }
  - { offset: 0x21D4E, size: 0x8, addend: 0x0, symName: __ZNSt3__122__make_exception_guardB8ne180100INS_29_AllocatorDestroyRangeReverseINS_9allocatorI8ObstacleEENS_16reverse_iteratorIPS3_EEEEEENS_28__exception_guard_exceptionsIT_EESA_, symObjAddr: 0x55B00, symBinAddr: 0x1000597EC, symSize: 0x1E8 }
  - { offset: 0x21D85, size: 0x8, addend: 0x0, symName: __ZNSt3__1neB8ne180100IP8ObstacleS2_EEbRKNS_16reverse_iteratorIT_EERKNS3_IT0_EE, symObjAddr: 0x55D2C, symBinAddr: 0x100059A18, symSize: 0x48 }
  - { offset: 0x21DD1, size: 0x8, addend: 0x0, symName: __ZNSt3__112__to_addressB8ne180100INS_16reverse_iteratorIP8ObstacleEEvEEu7__decayIDTclsr19__to_address_helperIT_EE6__callclsr3stdE7declvalIRKS5_EEEEES7_, symObjAddr: 0x55D74, symBinAddr: 0x100059A60, symSize: 0x24 }
  - { offset: 0x21E30, size: 0x8, addend: 0x0, symName: __ZNSt3__119__allocator_destroyB8ne180100INS_9allocatorI8ObstacleEENS_16reverse_iteratorINS4_IPS2_EEEES7_EEvRT_T0_T1_, symObjAddr: 0x565D0, symBinAddr: 0x10005A2BC, symSize: 0x70 }
  - { offset: 0x21E95, size: 0x8, addend: 0x0, symName: __ZNSt3__1neB8ne180100INS_16reverse_iteratorIP8ObstacleEES4_EEbRKNS1_IT_EERKNS1_IT0_EE, symObjAddr: 0x56880, symBinAddr: 0x10005A56C, symSize: 0x2BC }
  - { offset: 0x21EE3, size: 0x8, addend: 0x0, symName: __ZNSt3__112__to_addressB8ne180100INS_16reverse_iteratorINS1_IP8ObstacleEEEEvEEu7__decayIDTclsr19__to_address_helperIT_EE6__callclsr3stdE7declvalIRKS6_EEEEES8_, symObjAddr: 0x56B3C, symBinAddr: 0x10005A828, symSize: 0x24 }
  - { offset: 0x21F42, size: 0x8, addend: 0x0, symName: __ZNSt3__112__to_addressB8ne180100INS_4pairI8ObstacleiEEEEPT_S5_, symObjAddr: 0x5839C, symBinAddr: 0x10005C088, symSize: 0x14 }
  - { offset: 0x21F77, size: 0x8, addend: 0x0, symName: __ZNSt3__119__allocate_at_leastB8ne180100INS_9allocatorINS_4pairI8ObstacleiEEEEEENS_19__allocation_resultINS_16allocator_traitsIT_E7pointerEEERS8_m, symObjAddr: 0x5A8D4, symBinAddr: 0x10005E5C0, symSize: 0x284 }
  - { offset: 0x21FBC, size: 0x8, addend: 0x0, symName: __ZNSt3__142__uninitialized_allocator_move_if_noexceptB8ne180100INS_9allocatorINS_4pairI8ObstacleiEEEENS_16reverse_iteratorIPS4_EES8_S8_EET2_RT_T0_T1_S9_, symObjAddr: 0x5AD6C, symBinAddr: 0x10005EA58, symSize: 0x58C }
  - { offset: 0x22071, size: 0x8, addend: 0x0, symName: __ZNSt3__14swapB8ne180100IPNS_4pairI8ObstacleiEEEENS_9enable_ifIXaasr21is_move_constructibleIT_EE5valuesr18is_move_assignableIS6_EE5valueEvE4typeERS6_S9_, symObjAddr: 0x5B390, symBinAddr: 0x10005F07C, symSize: 0x134 }
  - { offset: 0x220C2, size: 0x8, addend: 0x0, symName: __ZNSt3__122__make_exception_guardB8ne180100INS_29_AllocatorDestroyRangeReverseINS_9allocatorINS_4pairI8ObstacleiEEEENS_16reverse_iteratorIPS5_EEEEEENS_28__exception_guard_exceptionsIT_EESC_, symObjAddr: 0x5B558, symBinAddr: 0x10005F244, symSize: 0x1E8 }
  - { offset: 0x220F9, size: 0x8, addend: 0x0, symName: __ZNSt3__1neB8ne180100IPNS_4pairI8ObstacleiEES4_EEbRKNS_16reverse_iteratorIT_EERKNS5_IT0_EE, symObjAddr: 0x5B784, symBinAddr: 0x10005F470, symSize: 0x48 }
  - { offset: 0x22145, size: 0x8, addend: 0x0, symName: __ZNSt3__112__to_addressB8ne180100INS_16reverse_iteratorIPNS_4pairI8ObstacleiEEEEvEEu7__decayIDTclsr19__to_address_helperIT_EE6__callclsr3stdE7declvalIRKS7_EEEEES9_, symObjAddr: 0x5B7CC, symBinAddr: 0x10005F4B8, symSize: 0x24 }
  - { offset: 0x221A4, size: 0x8, addend: 0x0, symName: __ZNSt3__119__allocator_destroyB8ne180100INS_9allocatorINS_4pairI8ObstacleiEEEENS_16reverse_iteratorINS6_IPS4_EEEES9_EEvRT_T0_T1_, symObjAddr: 0x5C028, symBinAddr: 0x10005FD14, symSize: 0x70 }
  - { offset: 0x22209, size: 0x8, addend: 0x0, symName: __ZNSt3__1neB8ne180100INS_16reverse_iteratorIPNS_4pairI8ObstacleiEEEES6_EEbRKNS1_IT_EERKNS1_IT0_EE, symObjAddr: 0x5C2D8, symBinAddr: 0x10005FFC4, symSize: 0x2BC }
  - { offset: 0x22257, size: 0x8, addend: 0x0, symName: __ZNSt3__112__to_addressB8ne180100INS_16reverse_iteratorINS1_IPNS_4pairI8ObstacleiEEEEEEvEEu7__decayIDTclsr19__to_address_helperIT_EE6__callclsr3stdE7declvalIRKS8_EEEEESA_, symObjAddr: 0x5C594, symBinAddr: 0x100060280, symSize: 0x24 }
  - { offset: 0x237E4, size: 0x8, addend: 0x0, symName: __ZSt28__throw_bad_array_new_lengthB8ne180100v, symObjAddr: 0x12D7C, symBinAddr: 0x100016A68, symSize: 0x38 }
  - { offset: 0x247D0, size: 0x8, addend: 0x0, symName: __ZNSt3__16vectorI3ArcNS_9allocatorIS1_EEE26__swap_out_circular_bufferERNS_14__split_bufferIS1_RS3_EE, symObjAddr: 0x114B8, symBinAddr: 0x1000151A4, symSize: 0x564 }
  - { offset: 0x25073, size: 0x8, addend: 0x0, symName: __ZNSt3__16vectorI6SommetNS_9allocatorIS1_EEE26__swap_out_circular_bufferERNS_14__split_bufferIS1_RS3_EE, symObjAddr: 0x2FDA8, symBinAddr: 0x100033A94, symSize: 0x564 }
  - { offset: 0x2522A, size: 0x8, addend: 0x0, symName: __ZNSt3__16vectorIdNS_9allocatorIdEEE26__swap_out_circular_bufferERNS_14__split_bufferIdRS2_EE, symObjAddr: 0x45E4C, symBinAddr: 0x100049B38, symSize: 0x564 }
  - { offset: 0x255DD, size: 0x8, addend: 0x0, symName: __ZNSt3__16vectorINS0_I6SommetNS_9allocatorIS1_EEEENS2_IS4_EEE26__swap_out_circular_bufferERNS_14__split_bufferIS4_RS5_EE, symObjAddr: 0x4EFB8, symBinAddr: 0x100052CA4, symSize: 0x564 }
  - { offset: 0x2567E, size: 0x8, addend: 0x0, symName: __ZNSt3__16vectorI8ObstacleNS_9allocatorIS1_EEE26__swap_out_circular_bufferERNS_14__split_bufferIS1_RS3_EE, symObjAddr: 0x53F9C, symBinAddr: 0x100057C88, symSize: 0x564 }
  - { offset: 0x258E7, size: 0x8, addend: 0x0, symName: __ZNSt3__16vectorINS_4pairI8ObstacleiEENS_9allocatorIS3_EEE26__swap_out_circular_bufferERNS_14__split_bufferIS3_RS5_EE, symObjAddr: 0x599EC, symBinAddr: 0x10005D6D8, symSize: 0x564 }
  - { offset: 0x259B4, size: 0x8, addend: 0x0, symName: __ZlsRNSt3__113basic_ostreamIcNS_11char_traitsIcEEEERK3Arc, symObjAddr: 0x0, symBinAddr: 0x100003CEC, symSize: 0x19C }
  - { offset: 0x259EE, size: 0x8, addend: 0x0, symName: __Z7inverse3Arc, symObjAddr: 0x3FC, symBinAddr: 0x1000040E8, symSize: 0x330 }
  - { offset: 0x25A31, size: 0x8, addend: 0x0, symName: __ZNK3Arc5poidsEv, symObjAddr: 0x72C, symBinAddr: 0x100004418, symSize: 0x64 }
  - { offset: 0x25A57, size: 0x8, addend: 0x0, symName: __ZN3ArcC1Eiid, symObjAddr: 0x790, symBinAddr: 0x10000447C, symSize: 0x44 }
  - { offset: 0x25AAA, size: 0x8, addend: 0x0, symName: __ZlsRNSt3__113basic_ostreamIcNS_11char_traitsIcEEEERKNS_6vectorIiNS_9allocatorIiEEEE, symObjAddr: 0x7D4, symBinAddr: 0x1000044C0, symSize: 0x150 }
  - { offset: 0x25B01, size: 0x8, addend: 0x0, symName: __ZNKSt3__16vectorIiNS_9allocatorIiEEE4sizeB8ne180100Ev, symObjAddr: 0x924, symBinAddr: 0x100004610, symSize: 0xB0 }
  - { offset: 0x25B27, size: 0x8, addend: 0x0, symName: __ZNKSt3__16vectorIiNS_9allocatorIiEEEixB8ne180100Em, symObjAddr: 0x9D4, symBinAddr: 0x1000046C0, symSize: 0x6C }
  - { offset: 0x25B5D, size: 0x8, addend: 0x0, symName: __ZlsRNSt3__113basic_ostreamIcNS_11char_traitsIcEEEERK5Graph, symObjAddr: 0xA40, symBinAddr: 0x10000472C, symSize: 0x310 }
  - { offset: 0x25BF5, size: 0x8, addend: 0x0, symName: __ZNKSt3__16vectorI3ArcNS_9allocatorIS1_EEE5beginB8ne180100Ev, symObjAddr: 0xD50, symBinAddr: 0x100004A3C, symSize: 0x260 }
  - { offset: 0x25C1E, size: 0x8, addend: 0x0, symName: __ZNKSt3__16vectorI3ArcNS_9allocatorIS1_EEE3endB8ne180100Ev, symObjAddr: 0xFB0, symBinAddr: 0x100004C9C, symSize: 0x264 }
  - { offset: 0x25C47, size: 0x8, addend: 0x0, symName: __ZNKSt3__111__wrap_iterIPK3ArcEdeB8ne180100Ev, symObjAddr: 0x1248, symBinAddr: 0x100004F34, symSize: 0x60 }
  - { offset: 0x25C6D, size: 0x8, addend: 0x0, symName: __ZNSt3__111__wrap_iterIPK3ArcEppB8ne180100Ev, symObjAddr: 0x12A8, symBinAddr: 0x100004F94, symSize: 0x68 }
  - { offset: 0x25C92, size: 0x8, addend: 0x0, symName: __Z16to_graph_Naive_26SommetS_St16initializer_listINSt3__14pairI8ObstacleiEEE, symObjAddr: 0x1310, symBinAddr: 0x100004FFC, symSize: 0x24FC }
  - { offset: 0x2613C, size: 0x8, addend: 0x0, symName: __ZN5GraphC1Ev, symObjAddr: 0x380C, symBinAddr: 0x1000074F8, symSize: 0x2C }
  - { offset: 0x26166, size: 0x8, addend: 0x0, symName: __ZNKSt16initializer_listINSt3__14pairI8ObstacleiEEE5beginB8ne180100Ev, symObjAddr: 0x3838, symBinAddr: 0x100007524, symSize: 0x60 }
  - { offset: 0x2618C, size: 0x8, addend: 0x0, symName: __ZNKSt16initializer_listINSt3__14pairI8ObstacleiEEE3endB8ne180100Ev, symObjAddr: 0x3898, symBinAddr: 0x100007584, symSize: 0xB0 }
  - { offset: 0x261B2, size: 0x8, addend: 0x0, symName: __ZNKSt3__16vectorI6SommetNS_9allocatorIS1_EEE4sizeB8ne180100Ev, symObjAddr: 0x3948, symBinAddr: 0x100007634, symSize: 0xB0 }
  - { offset: 0x261D8, size: 0x8, addend: 0x0, symName: __ZNSt3__16vectorI6SommetNS_9allocatorIS1_EEEC1Em, symObjAddr: 0x39F8, symBinAddr: 0x1000076E4, symSize: 0x34 }
  - { offset: 0x26213, size: 0x8, addend: 0x0, symName: __ZNSt3__16vectorIiNS_9allocatorIiEEEC1Em, symObjAddr: 0x3A2C, symBinAddr: 0x100007718, symSize: 0x34 }
  - { offset: 0x2624E, size: 0x8, addend: 0x0, symName: __ZNKSt3__16vectorI6SommetNS_9allocatorIS1_EEE5beginB8ne180100Ev, symObjAddr: 0x3A60, symBinAddr: 0x10000774C, symSize: 0x260 }
  - { offset: 0x26277, size: 0x8, addend: 0x0, symName: __ZNKSt3__16vectorI6SommetNS_9allocatorIS1_EEE3endB8ne180100Ev, symObjAddr: 0x3CC0, symBinAddr: 0x1000079AC, symSize: 0x264 }
  - { offset: 0x262A0, size: 0x8, addend: 0x0, symName: __ZNKSt3__111__wrap_iterIPK6SommetEdeB8ne180100Ev, symObjAddr: 0x3F58, symBinAddr: 0x100007C44, symSize: 0x60 }
  - { offset: 0x262C6, size: 0x8, addend: 0x0, symName: __ZNSt3__16vectorI6SommetNS_9allocatorIS1_EEEixB8ne180100Em, symObjAddr: 0x3FB8, symBinAddr: 0x100007CA4, symSize: 0x6C }
  - { offset: 0x262FD, size: 0x8, addend: 0x0, symName: __ZNSt3__16vectorIiNS_9allocatorIiEEEixB8ne180100Em, symObjAddr: 0x4024, symBinAddr: 0x100007D10, symSize: 0x6C }
  - { offset: 0x26334, size: 0x8, addend: 0x0, symName: __ZNSt3__111__wrap_iterIPK6SommetEppB8ne180100Ev, symObjAddr: 0x4090, symBinAddr: 0x100007D7C, symSize: 0x68 }
  - { offset: 0x2635A, size: 0x8, addend: 0x0, symName: __ZN7SegmentC1ERK6SommetS2_, symObjAddr: 0x40F8, symBinAddr: 0x100007DE4, symSize: 0x3C }
  - { offset: 0x263A0, size: 0x8, addend: 0x0, symName: __ZNK7Segment8longueurEv, symObjAddr: 0x4134, symBinAddr: 0x100007E20, symSize: 0x25C }
  - { offset: 0x263C7, size: 0x8, addend: 0x0, symName: __ZN5Graph3addE3Arc, symObjAddr: 0x4390, symBinAddr: 0x10000807C, symSize: 0x65C }
  - { offset: 0x26466, size: 0x8, addend: 0x0, symName: __ZlsRNSt3__113basic_ostreamIcNS_11char_traitsIcEEEERK7Segment, symObjAddr: 0x49EC, symBinAddr: 0x1000086D8, symSize: 0x60 }
  - { offset: 0x264A1, size: 0x8, addend: 0x0, symName: __ZNK8Obstacle12intersectionERK7Segmenti, symObjAddr: 0x4A4C, symBinAddr: 0x100008738, symSize: 0x48C }
  - { offset: 0x26530, size: 0x8, addend: 0x0, symName: __ZN5GraphC1ERKS_, symObjAddr: 0x4ED8, symBinAddr: 0x100008BC4, symSize: 0x34 }
  - { offset: 0x26565, size: 0x8, addend: 0x0, symName: __ZNSt3__16vectorI6SommetNS_9allocatorIS1_EEEC1ERKS4_, symObjAddr: 0x4F0C, symBinAddr: 0x100008BF8, symSize: 0x34 }
  - { offset: 0x265A0, size: 0x8, addend: 0x0, symName: __ZNSt3__16vectorIiNS_9allocatorIiEEEC1ERKS3_, symObjAddr: 0x4F40, symBinAddr: 0x100008C2C, symSize: 0x34 }
  - { offset: 0x265DB, size: 0x8, addend: 0x0, symName: __ZNSt3__16vectorIiNS_9allocatorIiEEED1B8ne180100Ev, symObjAddr: 0x4F74, symBinAddr: 0x100008C60, symSize: 0x2C }
  - { offset: 0x26605, size: 0x8, addend: 0x0, symName: __ZNSt3__16vectorI6SommetNS_9allocatorIS1_EEED1B8ne180100Ev, symObjAddr: 0x4FA0, symBinAddr: 0x100008C8C, symSize: 0x2C }
  - { offset: 0x2662F, size: 0x8, addend: 0x0, symName: __ZN5GraphD1Ev, symObjAddr: 0x4FCC, symBinAddr: 0x100008CB8, symSize: 0x2C }
  - { offset: 0x2665A, size: 0x8, addend: 0x0, symName: __Z16to_graph_Naive_36SommetS_St16initializer_listINSt3__14pairI8ObstacleiEEE, symObjAddr: 0x4FF8, symBinAddr: 0x100008CE4, symSize: 0x1224 }
  - { offset: 0x268E6, size: 0x8, addend: 0x0, symName: __Z8dijkstraRK5Graphi, symObjAddr: 0x621C, symBinAddr: 0x100009F08, symSize: 0x1DBC }
  - { offset: 0x26B07, size: 0x8, addend: 0x0, symName: __ZNSt3__114numeric_limitsIdE8infinityB8ne180100Ev, symObjAddr: 0x7FD8, symBinAddr: 0x10000BCC4, symSize: 0x14 }
  - { offset: 0x26B1B, size: 0x8, addend: 0x0, symName: __ZNSt3__16vectorIdNS_9allocatorIdEEEC1EmRKd, symObjAddr: 0x7FEC, symBinAddr: 0x10000BCD8, symSize: 0x3C }
  - { offset: 0x26B65, size: 0x8, addend: 0x0, symName: __ZNSt3__16vectorINS0_IdNS_9allocatorIdEEEENS1_IS3_EEEC1EmRKS3_, symObjAddr: 0x8028, symBinAddr: 0x10000BD14, symSize: 0x3C }
  - { offset: 0x26BAF, size: 0x8, addend: 0x0, symName: __ZNSt3__16vectorIdNS_9allocatorIdEEED1B8ne180100Ev, symObjAddr: 0x8064, symBinAddr: 0x10000BD50, symSize: 0x2C }
  - { offset: 0x26BD9, size: 0x8, addend: 0x0, symName: __ZNSt3__16vectorINS0_IdNS_9allocatorIdEEEENS1_IS3_EEEixB8ne180100Em, symObjAddr: 0x8090, symBinAddr: 0x10000BD7C, symSize: 0x74 }
  - { offset: 0x26C10, size: 0x8, addend: 0x0, symName: __ZNSt3__16vectorIdNS_9allocatorIdEEEixB8ne180100Em, symObjAddr: 0x8104, symBinAddr: 0x10000BDF0, symSize: 0x6C }
  - { offset: 0x26C47, size: 0x8, addend: 0x0, symName: __ZNSt3__16vectorIiNS_9allocatorIiEEEC1EmRKi, symObjAddr: 0x8170, symBinAddr: 0x10000BE5C, symSize: 0x3C }
  - { offset: 0x26DCE, size: 0x8, addend: 0x0, symName: __ZNSt3__13setIiNS_4lessIiEENS_9allocatorIiEEEC1B8ne180100ESt16initializer_listIiERKS2_, symObjAddr: 0x81AC, symBinAddr: 0x10000BE98, symSize: 0x258 }
  - { offset: 0x26E1C, size: 0x8, addend: 0x0, symName: __ZNSt3__13setIiNS_4lessIiEENS_9allocatorIiEEEC1B8ne180100Ev, symObjAddr: 0x8404, symBinAddr: 0x10000C0F0, symSize: 0x2C }
  - { offset: 0x26E46, size: 0x8, addend: 0x0, symName: __ZNSt3__13setIiNS_4lessIiEENS_9allocatorIiEEE6insertB8ne180100ERKi, symObjAddr: 0x8430, symBinAddr: 0x10000C11C, symSize: 0x298 }
  - { offset: 0x26E7D, size: 0x8, addend: 0x0, symName: __ZNKSt3__13setIiNS_4lessIiEENS_9allocatorIiEEE5emptyB8ne180100Ev, symObjAddr: 0x86C8, symBinAddr: 0x10000C3B4, symSize: 0x78 }
  - { offset: 0x26EA3, size: 0x8, addend: 0x0, symName: __ZNSt3__13setIiNS_4lessIiEENS_9allocatorIiEEE5beginB8ne180100Ev, symObjAddr: 0x8740, symBinAddr: 0x10000C42C, symSize: 0x2A4 }
  - { offset: 0x26ECA, size: 0x8, addend: 0x0, symName: __ZNSt3__13setIiNS_4lessIiEENS_9allocatorIiEEE3endB8ne180100Ev, symObjAddr: 0x89E4, symBinAddr: 0x10000C6D0, symSize: 0x2A4 }
  - { offset: 0x26EF1, size: 0x8, addend: 0x0, symName: __ZNKSt3__121__tree_const_iteratorIiPNS_11__tree_nodeIiPvEElEdeB8ne180100Ev, symObjAddr: 0x8CBC, symBinAddr: 0x10000C9A8, symSize: 0x28 }
  - { offset: 0x26F17, size: 0x8, addend: 0x0, symName: __ZNSt3__121__tree_const_iteratorIiPNS_11__tree_nodeIiPvEElEppB8ne180100Ev, symObjAddr: 0x8CE4, symBinAddr: 0x10000C9D0, symSize: 0xA8 }
  - { offset: 0x26F3D, size: 0x8, addend: 0x0, symName: __ZNSt3__13setIiNS_4lessIiEENS_9allocatorIiEEE5eraseB8ne180100ERKi, symObjAddr: 0x8D8C, symBinAddr: 0x10000CA78, symSize: 0x2C }
  - { offset: 0x26F8F, size: 0x8, addend: 0x0, symName: __ZNSt3__14pairINS_6vectorIdNS_9allocatorIdEEEENS1_IiNS2_IiEEEEEC1B8ne180100IRS4_RS6_Li0EEEOT_OT0_, symObjAddr: 0x8DB8, symBinAddr: 0x10000CAA4, symSize: 0x3C }
  - { offset: 0x26FED, size: 0x8, addend: 0x0, symName: __ZNSt3__13setIiNS_4lessIiEENS_9allocatorIiEEED1B8ne180100Ev, symObjAddr: 0x8DF4, symBinAddr: 0x10000CAE0, symSize: 0x2C }
  - { offset: 0x27017, size: 0x8, addend: 0x0, symName: __ZNSt3__16vectorINS0_IdNS_9allocatorIdEEEENS1_IS3_EEED1B8ne180100Ev, symObjAddr: 0x8E20, symBinAddr: 0x10000CB0C, symSize: 0x2C }
  - { offset: 0x27040, size: 0x8, addend: 0x0, symName: __Z4clipddd, symObjAddr: 0x8E4C, symBinAddr: 0x10000CB38, symSize: 0x310 }
  - { offset: 0x27094, size: 0x8, addend: 0x0, symName: __Z18random_angle_stepsid, symObjAddr: 0x91B4, symBinAddr: 0x10000CEA0, symSize: 0x4D4 }
  - { offset: 0x27160, size: 0x8, addend: 0x0, symName: __ZNSt3__16vectorIdNS_9allocatorIdEEEC1B8ne180100Ev, symObjAddr: 0x9688, symBinAddr: 0x10000D374, symSize: 0x2C }
  - { offset: 0x2718A, size: 0x8, addend: 0x0, symName: __ZNSt3__16vectorIdNS_9allocatorIdEEE9push_backB8ne180100ERKd, symObjAddr: 0x96B4, symBinAddr: 0x10000D3A0, symSize: 0x140 }
  - { offset: 0x271CF, size: 0x8, addend: 0x0, symName: __Z16generer_polygonedddddi, symObjAddr: 0x97F4, symBinAddr: 0x10000D4E0, symSize: 0x708 }
  - { offset: 0x272F8, size: 0x8, addend: 0x0, symName: __ZNSt3__16vectorI6SommetNS_9allocatorIS1_EEEC1B8ne180100Ev, symObjAddr: 0x9EFC, symBinAddr: 0x10000DBE8, symSize: 0x2C }
  - { offset: 0x2733E, size: 0x8, addend: 0x0, symName: __ZNSt3__113random_deviceC1B8ne180100Ev, symObjAddr: 0x9F28, symBinAddr: 0x10000DC14, symSize: 0x2FC }
  - { offset: 0x27369, size: 0x8, addend: 0x0, symName: __ZNSt3__123mersenne_twister_engineIjLm32ELm624ELm397ELm31ELj2567483615ELm11ELj4294967295ELm7ELj2636928640ELm15ELj4022730752ELm18ELj1812433253EEC1B8ne180100Ej, symObjAddr: 0xA224, symBinAddr: 0x10000DF10, symSize: 0x34 }
  - { offset: 0x273C9, size: 0x8, addend: 0x0, symName: __ZNSt3__119normal_distributionIdEC1B8ne180100Edd, symObjAddr: 0xA258, symBinAddr: 0x10000DF44, symSize: 0x3C }
  - { offset: 0x27415, size: 0x8, addend: 0x0, symName: __ZNSt3__119normal_distributionIdEclB8ne180100INS_23mersenne_twister_engineIjLm32ELm624ELm397ELm31ELj2567483615ELm11ELj4294967295ELm7ELj2636928640ELm15ELj4022730752ELm18ELj1812433253EEEEEdRT_, symObjAddr: 0xA294, symBinAddr: 0x10000DF80, symSize: 0x30 }
  - { offset: 0x27452, size: 0x8, addend: 0x0, symName: __ZNSt3__16vectorI6SommetNS_9allocatorIS1_EEE9push_backB8ne180100EOS1_, symObjAddr: 0xA2C4, symBinAddr: 0x10000DFB0, symSize: 0x140 }
  - { offset: 0x27498, size: 0x8, addend: 0x0, symName: __ZN6SommetC1Edd, symObjAddr: 0xA404, symBinAddr: 0x10000E0F0, symSize: 0x3C }
  - { offset: 0x274DD, size: 0x8, addend: 0x0, symName: __Z17segments_croisentRK6SommetS1_S1_S1_, symObjAddr: 0xA440, symBinAddr: 0x10000E12C, symSize: 0x3E4 }
  - { offset: 0x275F5, size: 0x8, addend: 0x0, symName: '__ZZ17segments_croisentRK6SommetS1_S1_S1_ENK3$_0clES1_S1_S1_', symObjAddr: 0xA824, symBinAddr: 0x10000E510, symSize: 0x2E0 }
  - { offset: 0x27662, size: 0x8, addend: 0x0, symName: '__ZZ17segments_croisentRK6SommetS1_S1_S1_ENK3$_1clES1_S1_S1_', symObjAddr: 0xAB04, symBinAddr: 0x10000E7F0, symSize: 0x2CC }
  - { offset: 0x276B5, size: 0x8, addend: 0x0, symName: __Z24polygones_se_chevauchentRKNSt3__16vectorI6SommetNS_9allocatorIS1_EEEES6_, symObjAddr: 0xADD0, symBinAddr: 0x10000EABC, symSize: 0x708 }
  - { offset: 0x27843, size: 0x8, addend: 0x0, symName: __ZNKSt3__16vectorI6SommetNS_9allocatorIS1_EEEixB8ne180100Em, symObjAddr: 0xB4D8, symBinAddr: 0x10000F1C4, symSize: 0x6C }
  - { offset: 0x27885, size: 0x8, addend: 0x0, symName: '__ZZ24polygones_se_chevauchentRKNSt3__16vectorI6SommetNS_9allocatorIS1_EEEES6_ENK3$_0clERKS1_S6_', symObjAddr: 0xB544, symBinAddr: 0x10000F230, symSize: 0x488 }
  - { offset: 0x27903, size: 0x8, addend: 0x0, symName: _main, symObjAddr: 0xB9CC, symBinAddr: 0x10000F6B8, symSize: 0x1898 }
  - { offset: 0x27BBB, size: 0x8, addend: 0x0, symName: __ZNSt3__16vectorI8ObstacleNS_9allocatorIS1_EEEC1B8ne180100Ev, symObjAddr: 0xD264, symBinAddr: 0x100010F50, symSize: 0x2C }
  - { offset: 0x27BE5, size: 0x8, addend: 0x0, symName: __ZNSt3__16vectorINS0_I6SommetNS_9allocatorIS1_EEEENS2_IS4_EEEC1B8ne180100Ev, symObjAddr: 0xD290, symBinAddr: 0x100010F7C, symSize: 0x2C }
  - { offset: 0x27C0F, size: 0x8, addend: 0x0, symName: __ZNSt3__16vectorI6SommetNS_9allocatorIS1_EEEaSB8ne180100EOS4_, symObjAddr: 0xD2BC, symBinAddr: 0x100010FA8, symSize: 0x34 }
  - { offset: 0x27C46, size: 0x8, addend: 0x0, symName: __ZNSt3__16vectorINS0_I6SommetNS_9allocatorIS1_EEEENS2_IS4_EEE5beginB8ne180100Ev, symObjAddr: 0xD2F0, symBinAddr: 0x100010FDC, symSize: 0x260 }
  - { offset: 0x27C6F, size: 0x8, addend: 0x0, symName: __ZNSt3__16vectorINS0_I6SommetNS_9allocatorIS1_EEEENS2_IS4_EEE3endB8ne180100Ev, symObjAddr: 0xD550, symBinAddr: 0x10001123C, symSize: 0x264 }
  - { offset: 0x27C98, size: 0x8, addend: 0x0, symName: __ZNKSt3__111__wrap_iterIPNS_6vectorI6SommetNS_9allocatorIS2_EEEEEdeB8ne180100Ev, symObjAddr: 0xD7E8, symBinAddr: 0x1000114D4, symSize: 0x60 }
  - { offset: 0x27CBE, size: 0x8, addend: 0x0, symName: __ZNSt3__111__wrap_iterIPNS_6vectorI6SommetNS_9allocatorIS2_EEEEEppB8ne180100Ev, symObjAddr: 0xD848, symBinAddr: 0x100011534, symSize: 0x68 }
  - { offset: 0x27CE4, size: 0x8, addend: 0x0, symName: __ZNSt3__16vectorINS0_I6SommetNS_9allocatorIS1_EEEENS2_IS4_EEE9push_backB8ne180100ERKS4_, symObjAddr: 0xD8B0, symBinAddr: 0x10001159C, symSize: 0x140 }
  - { offset: 0x27D2A, size: 0x8, addend: 0x0, symName: __ZNSt3__16vectorI8ObstacleNS_9allocatorIS1_EEE9push_backB8ne180100EOS1_, symObjAddr: 0xD9F0, symBinAddr: 0x1000116DC, symSize: 0x140 }
  - { offset: 0x27D70, size: 0x8, addend: 0x0, symName: __ZN8ObstacleC1ERKNSt3__16vectorI6SommetNS0_9allocatorIS2_EEEE, symObjAddr: 0xDB30, symBinAddr: 0x10001181C, symSize: 0x34 }
  - { offset: 0x27DA8, size: 0x8, addend: 0x0, symName: __ZN8ObstacleD1Ev, symObjAddr: 0xDB64, symBinAddr: 0x100011850, symSize: 0x2C }
  - { offset: 0x27DD4, size: 0x8, addend: 0x0, symName: __ZNSt3__113basic_ostreamIcNS_11char_traitsIcEEElsB8ne180100EPFRS3_S4_E, symObjAddr: 0xDB90, symBinAddr: 0x10001187C, symSize: 0x2C }
  - { offset: 0x27E08, size: 0x8, addend: 0x0, symName: __ZNSt3__16vectorINS_4pairI8ObstacleiEENS_9allocatorIS3_EEEC1B8ne180100Ev, symObjAddr: 0xDC90, symBinAddr: 0x10001197C, symSize: 0x2C }
  - { offset: 0x27E32, size: 0x8, addend: 0x0, symName: __ZNKSt3__16vectorI8ObstacleNS_9allocatorIS1_EEE4sizeB8ne180100Ev, symObjAddr: 0xDCBC, symBinAddr: 0x1000119A8, symSize: 0xB0 }
  - { offset: 0x27E58, size: 0x8, addend: 0x0, symName: __ZNSt3__16vectorINS_4pairI8ObstacleiEENS_9allocatorIS3_EEE9push_backB8ne180100EOS3_, symObjAddr: 0xDD6C, symBinAddr: 0x100011A58, symSize: 0x140 }
  - { offset: 0x27E9E, size: 0x8, addend: 0x0, symName: __ZNSt3__16vectorI8ObstacleNS_9allocatorIS1_EEEixB8ne180100Em, symObjAddr: 0xDEAC, symBinAddr: 0x100011B98, symSize: 0x74 }
  - { offset: 0x27EDB, size: 0x8, addend: 0x0, symName: __ZNSt3__14pairI8ObstacleiEC1B8ne180100IRS1_mLi0EEEOT_OT0_, symObjAddr: 0xDF20, symBinAddr: 0x100011C0C, symSize: 0x3C }
  - { offset: 0x27F39, size: 0x8, addend: 0x0, symName: __ZNSt3__14pairI8ObstacleiED1Ev, symObjAddr: 0xDF5C, symBinAddr: 0x100011C48, symSize: 0x2C }
  - { offset: 0x28225, size: 0x8, addend: 0x0, symName: __ZNSt3__114basic_ofstreamIcNS_11char_traitsIcEEEC1EPKcj, symObjAddr: 0xDF88, symBinAddr: 0x100011C74, symSize: 0x2B4 }
  - { offset: 0x2826F, size: 0x8, addend: 0x0, symName: __ZNKSt3__114basic_ofstreamIcNS_11char_traitsIcEEE7is_openEv, symObjAddr: 0xE23C, symBinAddr: 0x100011F28, symSize: 0x2C }
  - { offset: 0x28297, size: 0x8, addend: 0x0, symName: __ZNKSt3__16vectorINS0_I6SommetNS_9allocatorIS1_EEEENS2_IS4_EEE4sizeB8ne180100Ev, symObjAddr: 0xE268, symBinAddr: 0x100011F54, symSize: 0xB0 }
  - { offset: 0x282BD, size: 0x8, addend: 0x0, symName: __ZNSt3__16vectorINS0_I6SommetNS_9allocatorIS1_EEEENS2_IS4_EEEixB8ne180100Em, symObjAddr: 0xE318, symBinAddr: 0x100012004, symSize: 0x74 }
  - { offset: 0x282F4, size: 0x8, addend: 0x0, symName: __ZNSt3__16vectorI6SommetNS_9allocatorIS1_EEE5beginB8ne180100Ev, symObjAddr: 0xE38C, symBinAddr: 0x100012078, symSize: 0x260 }
  - { offset: 0x2831D, size: 0x8, addend: 0x0, symName: __ZNSt3__16vectorI6SommetNS_9allocatorIS1_EEE3endB8ne180100Ev, symObjAddr: 0xE5EC, symBinAddr: 0x1000122D8, symSize: 0x264 }
  - { offset: 0x28346, size: 0x8, addend: 0x0, symName: __ZNKSt3__111__wrap_iterIP6SommetEdeB8ne180100Ev, symObjAddr: 0xE884, symBinAddr: 0x100012570, symSize: 0x60 }
  - { offset: 0x2836C, size: 0x8, addend: 0x0, symName: __ZNSt3__111__wrap_iterIP6SommetEppB8ne180100Ev, symObjAddr: 0xE8E4, symBinAddr: 0x1000125D0, symSize: 0x68 }
  - { offset: 0x28392, size: 0x8, addend: 0x0, symName: __ZNKSt3__16vectorI6SommetNS_9allocatorIS1_EEE5emptyB8ne180100Ev, symObjAddr: 0xE94C, symBinAddr: 0x100012638, symSize: 0xB0 }
  - { offset: 0x283B8, size: 0x8, addend: 0x0, symName: __ZNSt3__114basic_ofstreamIcNS_11char_traitsIcEEE5closeEv, symObjAddr: 0xE9FC, symBinAddr: 0x1000126E8, symSize: 0xD4 }
  - { offset: 0x283E6, size: 0x8, addend: 0x0, symName: __ZNSt3__114basic_ofstreamIcNS_11char_traitsIcEEED1Ev, symObjAddr: 0xEAD0, symBinAddr: 0x1000127BC, symSize: 0x40 }
  - { offset: 0x28413, size: 0x8, addend: 0x0, symName: __ZNSt3__16vectorINS_4pairI8ObstacleiEENS_9allocatorIS3_EEED1B8ne180100Ev, symObjAddr: 0xEB10, symBinAddr: 0x1000127FC, symSize: 0x2C }
  - { offset: 0x2843D, size: 0x8, addend: 0x0, symName: __ZNSt3__16vectorINS0_I6SommetNS_9allocatorIS1_EEEENS2_IS4_EEED1B8ne180100Ev, symObjAddr: 0xEB3C, symBinAddr: 0x100012828, symSize: 0x2C }
  - { offset: 0x28467, size: 0x8, addend: 0x0, symName: __ZNSt3__16vectorI8ObstacleNS_9allocatorIS1_EEED1B8ne180100Ev, symObjAddr: 0xEB68, symBinAddr: 0x100012854, symSize: 0x2C }
  - { offset: 0x28491, size: 0x8, addend: 0x0, symName: __ZN3ArcC2Eiid, symObjAddr: 0xEB94, symBinAddr: 0x100012880, symSize: 0x154 }
  - { offset: 0x284E5, size: 0x8, addend: 0x0, symName: __ZNKSt3__111__wrap_iterIPK3ArcE4baseB8ne180100Ev, symObjAddr: 0xED30, symBinAddr: 0x100012A1C, symSize: 0x60 }
  - { offset: 0x2850B, size: 0x8, addend: 0x0, symName: __ZN5GraphC2Ev, symObjAddr: 0xED90, symBinAddr: 0x100012A7C, symSize: 0x94 }
  - { offset: 0x28535, size: 0x8, addend: 0x0, symName: __ZNSt3__16vectorI3ArcNS_9allocatorIS1_EEEC1B8ne180100Ev, symObjAddr: 0xEE24, symBinAddr: 0x100012B10, symSize: 0x2C }
  - { offset: 0x2855F, size: 0x8, addend: 0x0, symName: __ZNSt3__16vectorI3ArcNS_9allocatorIS1_EEEC2B8ne180100Ev, symObjAddr: 0xEE50, symBinAddr: 0x100012B3C, symSize: 0x324 }
  - { offset: 0x28596, size: 0x8, addend: 0x0, symName: __ZNSt3__117__compressed_pairIP3ArcNS_9allocatorIS1_EEEC1B8ne180100IDnNS_18__default_init_tagEEEOT_OT0_, symObjAddr: 0xF174, symBinAddr: 0x100012E60, symSize: 0x3C }
  - { offset: 0x285EE, size: 0x8, addend: 0x0, symName: __ZNSt3__117__compressed_pairIP3ArcNS_9allocatorIS1_EEEC2B8ne180100IDnNS_18__default_init_tagEEEOT_OT0_, symObjAddr: 0xF1C0, symBinAddr: 0x100012EAC, symSize: 0x40 }
  - { offset: 0x28646, size: 0x8, addend: 0x0, symName: __ZNSt3__122__compressed_pair_elemIP3ArcLi0ELb0EEC2B8ne180100IDnvEEOT_, symObjAddr: 0xF200, symBinAddr: 0x100012EEC, symSize: 0x64 }
  - { offset: 0x28688, size: 0x8, addend: 0x0, symName: __ZNSt3__122__compressed_pair_elemINS_9allocatorI3ArcEELi1ELb1EEC2B8ne180100ENS_18__default_init_tagE, symObjAddr: 0xF264, symBinAddr: 0x100012F50, symSize: 0x2C }
  - { offset: 0x286BC, size: 0x8, addend: 0x0, symName: __ZNSt3__19allocatorI3ArcEC2B8ne180100Ev, symObjAddr: 0xF290, symBinAddr: 0x100012F7C, symSize: 0x2C }
  - { offset: 0x286E6, size: 0x8, addend: 0x0, symName: __ZNSt3__116__non_trivial_ifILb1ENS_9allocatorI3ArcEEEC2B8ne180100Ev, symObjAddr: 0xF2BC, symBinAddr: 0x100012FA8, symSize: 0x14 }
  - { offset: 0x28710, size: 0x8, addend: 0x0, symName: __ZNKSt3__111__wrap_iterIPK6SommetE4baseB8ne180100Ev, symObjAddr: 0xF318, symBinAddr: 0x100013004, symSize: 0x60 }
  - { offset: 0x28736, size: 0x8, addend: 0x0, symName: __ZN7SegmentC2ERK6SommetS2_, symObjAddr: 0xF378, symBinAddr: 0x100013064, symSize: 0x54 }
  - { offset: 0x2877C, size: 0x8, addend: 0x0, symName: __ZNK6SommetmiERKS_, symObjAddr: 0xF3CC, symBinAddr: 0x1000130B8, symSize: 0x310 }
  - { offset: 0x287B2, size: 0x8, addend: 0x0, symName: __ZNK6Sommet5normeEv, symObjAddr: 0xF6DC, symBinAddr: 0x1000133C8, symSize: 0x12C }
  - { offset: 0x287D8, size: 0x8, addend: 0x0, symName: __ZNSt3__16vectorI3ArcNS_9allocatorIS1_EEE12emplace_backIJRS1_EEES6_DpOT_, symObjAddr: 0xF808, symBinAddr: 0x1000134F4, symSize: 0x148 }
  - { offset: 0x28829, size: 0x8, addend: 0x0, symName: __ZNSt3__16vectorI3ArcNS_9allocatorIS1_EEE5beginB8ne180100Ev, symObjAddr: 0xF950, symBinAddr: 0x10001363C, symSize: 0x260 }
  - { offset: 0x28852, size: 0x8, addend: 0x0, symName: __ZNSt3__16vectorI3ArcNS_9allocatorIS1_EEE3endB8ne180100Ev, symObjAddr: 0xFBB0, symBinAddr: 0x10001389C, symSize: 0x264 }
  - { offset: 0x2887B, size: 0x8, addend: 0x0, symName: __ZNKSt3__111__wrap_iterIP3ArcEdeB8ne180100Ev, symObjAddr: 0xFE48, symBinAddr: 0x100013B34, symSize: 0x60 }
  - { offset: 0x288A1, size: 0x8, addend: 0x0, symName: __ZNSt3__111__wrap_iterIP3ArcEppB8ne180100Ev, symObjAddr: 0xFEA8, symBinAddr: 0x100013B94, symSize: 0x68 }
  - { offset: 0x288C7, size: 0x8, addend: 0x0, symName: __ZNKSt3__13setIiNS_4lessIiEENS_9allocatorIiEEE4sizeB8ne180100Ev, symObjAddr: 0xFF10, symBinAddr: 0x100013BFC, symSize: 0x6C }
  - { offset: 0x288ED, size: 0x8, addend: 0x0, symName: __ZNSt3__16vectorI3ArcNS_9allocatorIS1_EEE9__end_capB8ne180100Ev, symObjAddr: 0xFF7C, symBinAddr: 0x100013C68, symSize: 0x28 }
  - { offset: 0x28913, size: 0x8, addend: 0x0, symName: __ZNSt3__16vectorI3ArcNS_9allocatorIS1_EEE22__construct_one_at_endB8ne180100IJRS1_EEEvDpOT_, symObjAddr: 0xFFA4, symBinAddr: 0x100013C90, symSize: 0x390 }
  - { offset: 0x28968, size: 0x8, addend: 0x0, symName: __ZNSt3__16vectorI3ArcNS_9allocatorIS1_EEE24__emplace_back_slow_pathIJRS1_EEEPS1_DpOT_, symObjAddr: 0x10334, symBinAddr: 0x100014020, symSize: 0x42C }
  - { offset: 0x289CF, size: 0x8, addend: 0x0, symName: __ZNSt3__117__compressed_pairIP3ArcNS_9allocatorIS1_EEE5firstB8ne180100Ev, symObjAddr: 0x10760, symBinAddr: 0x10001444C, symSize: 0x24 }
  - { offset: 0x289F5, size: 0x8, addend: 0x0, symName: __ZNSt3__122__compressed_pair_elemIP3ArcLi0ELb0EE5__getB8ne180100Ev, symObjAddr: 0x10784, symBinAddr: 0x100014470, symSize: 0x14 }
  - { offset: 0x28A37, size: 0x8, addend: 0x0, symName: __ZNSt3__16vectorI3ArcNS_9allocatorIS1_EEE21_ConstructTransactionC1B8ne180100ERS4_m, symObjAddr: 0x10798, symBinAddr: 0x100014484, symSize: 0x3C }
  - { offset: 0x28A7F, size: 0x8, addend: 0x0, symName: __ZNSt3__116allocator_traitsINS_9allocatorI3ArcEEE9constructB8ne180100IS2_JRS2_EvEEvRS3_PT_DpOT0_, symObjAddr: 0x107D4, symBinAddr: 0x1000144C0, symSize: 0x34 }
  - { offset: 0x28AD6, size: 0x8, addend: 0x0, symName: __ZNSt3__16vectorI3ArcNS_9allocatorIS1_EEE7__allocB8ne180100Ev, symObjAddr: 0x10808, symBinAddr: 0x1000144F4, symSize: 0x28 }
  - { offset: 0x28AFC, size: 0x8, addend: 0x0, symName: __ZNSt3__16vectorI3ArcNS_9allocatorIS1_EEE21_ConstructTransactionD1B8ne180100Ev, symObjAddr: 0x10844, symBinAddr: 0x100014530, symSize: 0x2C }
  - { offset: 0x28B26, size: 0x8, addend: 0x0, symName: __ZNSt3__16vectorI3ArcNS_9allocatorIS1_EEE21_ConstructTransactionC2B8ne180100ERS4_m, symObjAddr: 0x10870, symBinAddr: 0x10001455C, symSize: 0x1D0 }
  - { offset: 0x28B6E, size: 0x8, addend: 0x0, symName: __ZNKSt3__16vectorI3ArcNS_9allocatorIS1_EEE19__annotate_increaseB8ne180100Em, symObjAddr: 0x10A40, symBinAddr: 0x10001472C, symSize: 0x98 }
  - { offset: 0x28BA3, size: 0x8, addend: 0x0, symName: __ZNKSt3__16vectorI3ArcNS_9allocatorIS1_EEE31__annotate_contiguous_containerB8ne180100EPKvS6_, symObjAddr: 0x10AD8, symBinAddr: 0x1000147C4, symSize: 0x8C }
  - { offset: 0x28C05, size: 0x8, addend: 0x0, symName: __ZNKSt3__16vectorI3ArcNS_9allocatorIS1_EEE4dataB8ne180100Ev, symObjAddr: 0x10B64, symBinAddr: 0x100014850, symSize: 0x64 }
  - { offset: 0x28C2B, size: 0x8, addend: 0x0, symName: __ZNKSt3__16vectorI3ArcNS_9allocatorIS1_EEE4sizeB8ne180100Ev, symObjAddr: 0x10BC8, symBinAddr: 0x1000148B4, symSize: 0xB0 }
  - { offset: 0x28C51, size: 0x8, addend: 0x0, symName: __ZNKSt3__16vectorI3ArcNS_9allocatorIS1_EEE8capacityB8ne180100Ev, symObjAddr: 0x10C78, symBinAddr: 0x100014964, symSize: 0xBC }
  - { offset: 0x28C77, size: 0x8, addend: 0x0, symName: __ZNKSt3__16vectorI3ArcNS_9allocatorIS1_EEE9__end_capB8ne180100Ev, symObjAddr: 0x10D34, symBinAddr: 0x100014A20, symSize: 0x28 }
  - { offset: 0x28C9D, size: 0x8, addend: 0x0, symName: __ZNKSt3__117__compressed_pairIP3ArcNS_9allocatorIS1_EEE5firstB8ne180100Ev, symObjAddr: 0x10D5C, symBinAddr: 0x100014A48, symSize: 0x24 }
  - { offset: 0x28CC3, size: 0x8, addend: 0x0, symName: __ZNKSt3__122__compressed_pair_elemIP3ArcLi0ELb0EE5__getB8ne180100Ev, symObjAddr: 0x10D80, symBinAddr: 0x100014A6C, symSize: 0x14 }
  - { offset: 0x28CE9, size: 0x8, addend: 0x0, symName: __ZNSt3__19allocatorI3ArcE9constructB8ne180100IS1_JRS1_EEEvPT_DpOT0_, symObjAddr: 0x10D94, symBinAddr: 0x100014A80, symSize: 0x34 }
  - { offset: 0x28D3F, size: 0x8, addend: 0x0, symName: __ZNSt3__117__compressed_pairIP3ArcNS_9allocatorIS1_EEE6secondB8ne180100Ev, symObjAddr: 0x10DC8, symBinAddr: 0x100014AB4, symSize: 0x24 }
  - { offset: 0x28D65, size: 0x8, addend: 0x0, symName: __ZNSt3__122__compressed_pair_elemINS_9allocatorI3ArcEELi1ELb1EE5__getB8ne180100Ev, symObjAddr: 0x10DEC, symBinAddr: 0x100014AD8, symSize: 0x14 }
  - { offset: 0x28D8B, size: 0x8, addend: 0x0, symName: __ZNSt3__16vectorI3ArcNS_9allocatorIS1_EEE21_ConstructTransactionD2B8ne180100Ev, symObjAddr: 0x10E00, symBinAddr: 0x100014AEC, symSize: 0x278 }
  - { offset: 0x28DB5, size: 0x8, addend: 0x0, symName: __ZNKSt3__16vectorI3ArcNS_9allocatorIS1_EEE17__annotate_shrinkB8ne180100Em, symObjAddr: 0x11078, symBinAddr: 0x100014D64, symSize: 0x88 }
  - { offset: 0x28DEA, size: 0x8, addend: 0x0, symName: __ZNKSt3__16vectorI3ArcNS_9allocatorIS1_EEE11__recommendB8ne180100Em, symObjAddr: 0x11100, symBinAddr: 0x100014DEC, symSize: 0x374 }
  - { offset: 0x28E46, size: 0x8, addend: 0x0, symName: __ZNSt3__114__split_bufferI3ArcRNS_9allocatorIS1_EEEC1EmmS4_, symObjAddr: 0x11474, symBinAddr: 0x100015160, symSize: 0x44 }
  - { offset: 0x28E9C, size: 0x8, addend: 0x0, symName: __ZNSt3__114__split_bufferI3ArcRNS_9allocatorIS1_EEED1Ev, symObjAddr: 0x11A1C, symBinAddr: 0x100015708, symSize: 0x2C }
  - { offset: 0x28EC8, size: 0x8, addend: 0x0, symName: __ZNKSt3__16vectorI3ArcNS_9allocatorIS1_EEE8max_sizeEv, symObjAddr: 0x11A48, symBinAddr: 0x100015734, symSize: 0x338 }
  - { offset: 0x28EF1, size: 0x8, addend: 0x0, symName: __ZNKSt3__16vectorI3ArcNS_9allocatorIS1_EEE20__throw_length_errorB8ne180100Ev, symObjAddr: 0x11D80, symBinAddr: 0x100015A6C, symSize: 0x20 }
  - { offset: 0x28F22, size: 0x8, addend: 0x0, symName: __ZNSt3__116allocator_traitsINS_9allocatorI3ArcEEE8max_sizeB8ne180100IS3_vEEmRKS3_, symObjAddr: 0x11DF8, symBinAddr: 0x100015AE4, symSize: 0x24 }
  - { offset: 0x28F50, size: 0x8, addend: 0x0, symName: __ZNKSt3__16vectorI3ArcNS_9allocatorIS1_EEE7__allocB8ne180100Ev, symObjAddr: 0x11E1C, symBinAddr: 0x100015B08, symSize: 0x28 }
  - { offset: 0x28F76, size: 0x8, addend: 0x0, symName: __ZNSt3__114numeric_limitsIlE3maxB8ne180100Ev, symObjAddr: 0x11E44, symBinAddr: 0x100015B30, symSize: 0x14 }
  - { offset: 0x28F95, size: 0x8, addend: 0x0, symName: __ZNKSt3__16__lessIvvEclB8ne180100ImmEEbRKT_RKT0_, symObjAddr: 0x12038, symBinAddr: 0x100015D24, symSize: 0xBC }
  - { offset: 0x28FE9, size: 0x8, addend: 0x0, symName: __ZNKSt3__19allocatorI3ArcE8max_sizeB8ne180100Ev, symObjAddr: 0x120F4, symBinAddr: 0x100015DE0, symSize: 0x14 }
  - { offset: 0x2900F, size: 0x8, addend: 0x0, symName: __ZNKSt3__117__compressed_pairIP3ArcNS_9allocatorIS1_EEE6secondB8ne180100Ev, symObjAddr: 0x12108, symBinAddr: 0x100015DF4, symSize: 0x24 }
  - { offset: 0x29035, size: 0x8, addend: 0x0, symName: __ZNKSt3__122__compressed_pair_elemINS_9allocatorI3ArcEELi1ELb1EE5__getB8ne180100Ev, symObjAddr: 0x1212C, symBinAddr: 0x100015E18, symSize: 0x14 }
  - { offset: 0x2905B, size: 0x8, addend: 0x0, symName: __ZNSt3__123__libcpp_numeric_limitsIlLb1EE3maxB8ne180100Ev, symObjAddr: 0x12140, symBinAddr: 0x100015E2C, symSize: 0x8 }
  - { offset: 0x2906F, size: 0x8, addend: 0x0, symName: __ZNSt12length_errorC1B8ne180100EPKc, symObjAddr: 0x121B0, symBinAddr: 0x100015E9C, symSize: 0x34 }
  - { offset: 0x290A7, size: 0x8, addend: 0x0, symName: __ZNSt12length_errorC2B8ne180100EPKc, symObjAddr: 0x121E4, symBinAddr: 0x100015ED0, symSize: 0x84 }
  - { offset: 0x290DF, size: 0x8, addend: 0x0, symName: __ZNSt3__114__split_bufferI3ArcRNS_9allocatorIS1_EEEC2EmmS4_, symObjAddr: 0x12448, symBinAddr: 0x100016134, symSize: 0x510 }
  - { offset: 0x2915A, size: 0x8, addend: 0x0, symName: __ZNSt3__117__compressed_pairIP3ArcRNS_9allocatorIS1_EEEC1B8ne180100IDnS5_EEOT_OT0_, symObjAddr: 0x12958, symBinAddr: 0x100016644, symSize: 0x3C }
  - { offset: 0x291B2, size: 0x8, addend: 0x0, symName: __ZNSt3__114__split_bufferI3ArcRNS_9allocatorIS1_EEE7__allocB8ne180100Ev, symObjAddr: 0x12C18, symBinAddr: 0x100016904, symSize: 0x28 }
  - { offset: 0x291D8, size: 0x8, addend: 0x0, symName: __ZNSt3__114__split_bufferI3ArcRNS_9allocatorIS1_EEE9__end_capB8ne180100Ev, symObjAddr: 0x12C40, symBinAddr: 0x10001692C, symSize: 0x28 }
  - { offset: 0x291FE, size: 0x8, addend: 0x0, symName: __ZNSt3__117__compressed_pairIP3ArcRNS_9allocatorIS1_EEEC2B8ne180100IDnS5_EEOT_OT0_, symObjAddr: 0x12C68, symBinAddr: 0x100016954, symSize: 0x48 }
  - { offset: 0x29256, size: 0x8, addend: 0x0, symName: __ZNSt3__122__compressed_pair_elemIRNS_9allocatorI3ArcEELi1ELb0EEC2B8ne180100IS4_vEEOT_, symObjAddr: 0x12CB0, symBinAddr: 0x10001699C, symSize: 0x70 }
  - { offset: 0x29298, size: 0x8, addend: 0x0, symName: __ZNSt3__19allocatorI3ArcE8allocateB8ne180100Em, symObjAddr: 0x12D20, symBinAddr: 0x100016A0C, symSize: 0x5C }
  - { offset: 0x292CC, size: 0x8, addend: 0x0, symName: __ZNSt3__117__compressed_pairIP3ArcRNS_9allocatorIS1_EEE6secondB8ne180100Ev, symObjAddr: 0x12E84, symBinAddr: 0x100016B70, symSize: 0x28 }
  - { offset: 0x292F2, size: 0x8, addend: 0x0, symName: __ZNSt3__122__compressed_pair_elemIRNS_9allocatorI3ArcEELi1ELb0EE5__getB8ne180100Ev, symObjAddr: 0x12EAC, symBinAddr: 0x100016B98, symSize: 0x60 }
  - { offset: 0x29318, size: 0x8, addend: 0x0, symName: __ZNSt3__117__compressed_pairIP3ArcRNS_9allocatorIS1_EEE5firstB8ne180100Ev, symObjAddr: 0x12F0C, symBinAddr: 0x100016BF8, symSize: 0x24 }
  - { offset: 0x2933E, size: 0x8, addend: 0x0, symName: __ZNKSt3__16vectorI3ArcNS_9allocatorIS1_EEE17__annotate_deleteB8ne180100Ev, symObjAddr: 0x12F30, symBinAddr: 0x100016C1C, symSize: 0x8C }
  - { offset: 0x29364, size: 0x8, addend: 0x0, symName: __ZNSt3__116reverse_iteratorIP3ArcEC1B8ne180100ES2_, symObjAddr: 0x1345C, symBinAddr: 0x100017148, symSize: 0x34 }
  - { offset: 0x2939C, size: 0x8, addend: 0x0, symName: __ZNKSt3__116reverse_iteratorIP3ArcE4baseB8ne180100Ev, symObjAddr: 0x13490, symBinAddr: 0x10001717C, symSize: 0x64 }
  - { offset: 0x293C2, size: 0x8, addend: 0x0, symName: __ZNKSt3__16vectorI3ArcNS_9allocatorIS1_EEE14__annotate_newB8ne180100Em, symObjAddr: 0x13628, symBinAddr: 0x100017314, symSize: 0x80 }
  - { offset: 0x2941F, size: 0x8, addend: 0x0, symName: __ZNKSt3__111__move_loopINS_17_ClassicAlgPolicyEEclB8ne180100INS_16reverse_iteratorIP3ArcEES7_S7_EENS_4pairIT_T1_EES9_T0_SA_, symObjAddr: 0x15050, symBinAddr: 0x100018D3C, symSize: 0x334 }
  - { offset: 0x2949D, size: 0x8, addend: 0x0, symName: __ZNSt3__18_IterOpsINS_17_ClassicAlgPolicyEE11__iter_moveB8ne180100IRNS_16reverse_iteratorIP3ArcEELi0EEEDTclsr3stdE4movedeclsr3stdE7declvalIRT_EEEEOS9_, symObjAddr: 0x15EE4, symBinAddr: 0x100019BD0, symSize: 0x28 }
  - { offset: 0x294CF, size: 0x8, addend: 0x0, symName: __ZNKSt3__116reverse_iteratorIP3ArcEdeB8ne180100Ev, symObjAddr: 0x15F0C, symBinAddr: 0x100019BF8, symSize: 0x74 }
  - { offset: 0x29503, size: 0x8, addend: 0x0, symName: __ZNSt3__116reverse_iteratorIP3ArcEppB8ne180100Ev, symObjAddr: 0x15F80, symBinAddr: 0x100019C6C, symSize: 0x6C }
  - { offset: 0x29529, size: 0x8, addend: 0x0, symName: __ZNSt3__18_IterOpsINS_17_ClassicAlgPolicyEE25__validate_iter_referenceB8ne180100IRNS_16reverse_iteratorIP3ArcEEEEvv, symObjAddr: 0x15FEC, symBinAddr: 0x100019CD8, symSize: 0x4 }
  - { offset: 0x29547, size: 0x8, addend: 0x0, symName: __ZNSt3__118__unwrap_iter_implINS_16reverse_iteratorIP3ArcEELb0EE8__unwrapB8ne180100ES4_, symObjAddr: 0x15FF0, symBinAddr: 0x100019CDC, symSize: 0x264 }
  - { offset: 0x29574, size: 0x8, addend: 0x0, symName: __ZNSt3__14pairINS_16reverse_iteratorIP3ArcEES4_EC1B8ne180100IS4_S4_Li0EEEOT_OT0_, symObjAddr: 0x16254, symBinAddr: 0x100019F40, symSize: 0x3C }
  - { offset: 0x295D2, size: 0x8, addend: 0x0, symName: __ZNSt3__14pairINS_16reverse_iteratorIP3ArcEES4_EC2B8ne180100IS4_S4_Li0EEEOT_OT0_, symObjAddr: 0x16290, symBinAddr: 0x100019F7C, symSize: 0x54 }
  - { offset: 0x29630, size: 0x8, addend: 0x0, symName: __ZNSt3__118__unwrap_iter_implINS_16reverse_iteratorIP3ArcEELb0EE8__rewrapB8ne180100ES4_S4_, symObjAddr: 0x162E4, symBinAddr: 0x100019FD0, symSize: 0x2D0 }
  - { offset: 0x29665, size: 0x8, addend: 0x0, symName: __ZNSt3__116reverse_iteratorIP3ArcEC2B8ne180100ES2_, symObjAddr: 0x165B4, symBinAddr: 0x10001A2A0, symSize: 0xB8 }
  - { offset: 0x2969D, size: 0x8, addend: 0x0, symName: __ZNSt3__114__split_bufferI3ArcRNS_9allocatorIS1_EEED2Ev, symObjAddr: 0x1666C, symBinAddr: 0x10001A358, symSize: 0x104 }
  - { offset: 0x296C9, size: 0x8, addend: 0x0, symName: __ZNSt3__114__split_bufferI3ArcRNS_9allocatorIS1_EEE5clearB8ne180100Ev, symObjAddr: 0x16770, symBinAddr: 0x10001A45C, symSize: 0x68 }
  - { offset: 0x296EF, size: 0x8, addend: 0x0, symName: __ZNSt3__116allocator_traitsINS_9allocatorI3ArcEEE10deallocateB8ne180100ERS3_PS2_m, symObjAddr: 0x167D8, symBinAddr: 0x10001A4C4, symSize: 0x34 }
  - { offset: 0x29731, size: 0x8, addend: 0x0, symName: __ZNKSt3__114__split_bufferI3ArcRNS_9allocatorIS1_EEE8capacityB8ne180100Ev, symObjAddr: 0x1680C, symBinAddr: 0x10001A4F8, symSize: 0xBC }
  - { offset: 0x29757, size: 0x8, addend: 0x0, symName: __ZNSt3__114__split_bufferI3ArcRNS_9allocatorIS1_EEE17__destruct_at_endB8ne180100EPS1_, symObjAddr: 0x168C8, symBinAddr: 0x10001A5B4, symSize: 0x2C }
  - { offset: 0x2978B, size: 0x8, addend: 0x0, symName: __ZNSt3__114__split_bufferI3ArcRNS_9allocatorIS1_EEE17__destruct_at_endB8ne180100EPS1_NS_17integral_constantIbLb0EEE, symObjAddr: 0x168F4, symBinAddr: 0x10001A5E0, symSize: 0x10C }
  - { offset: 0x297CB, size: 0x8, addend: 0x0, symName: __ZNSt3__116allocator_traitsINS_9allocatorI3ArcEEE7destroyB8ne180100IS2_vEEvRS3_PT_, symObjAddr: 0x16A00, symBinAddr: 0x10001A6EC, symSize: 0x2C }
  - { offset: 0x29808, size: 0x8, addend: 0x0, symName: __ZNSt3__19allocatorI3ArcE7destroyB8ne180100EPS1_, symObjAddr: 0x16A2C, symBinAddr: 0x10001A718, symSize: 0x14 }
  - { offset: 0x2983C, size: 0x8, addend: 0x0, symName: __ZNSt3__19allocatorI3ArcE10deallocateB8ne180100EPS1_m, symObjAddr: 0x16A40, symBinAddr: 0x10001A72C, symSize: 0x4C }
  - { offset: 0x2987E, size: 0x8, addend: 0x0, symName: __ZNKSt3__114__split_bufferI3ArcRNS_9allocatorIS1_EEE9__end_capB8ne180100Ev, symObjAddr: 0x16B94, symBinAddr: 0x10001A880, symSize: 0x28 }
  - { offset: 0x298A4, size: 0x8, addend: 0x0, symName: __ZNKSt3__117__compressed_pairIP3ArcRNS_9allocatorIS1_EEE5firstB8ne180100Ev, symObjAddr: 0x16BBC, symBinAddr: 0x10001A8A8, symSize: 0x24 }
  - { offset: 0x298CA, size: 0x8, addend: 0x0, symName: __ZNSt3__16vectorI3ArcNS_9allocatorIS1_EEE11__make_iterB8ne180100EPS1_, symObjAddr: 0x16BE0, symBinAddr: 0x10001A8CC, symSize: 0x1F4 }
  - { offset: 0x29901, size: 0x8, addend: 0x0, symName: __ZNSt3__111__wrap_iterIP3ArcEC1B8ne180100ES2_, symObjAddr: 0x16DD4, symBinAddr: 0x10001AAC0, symSize: 0x34 }
  - { offset: 0x29939, size: 0x8, addend: 0x0, symName: __ZNSt3__111__wrap_iterIP3ArcEC2B8ne180100ES2_, symObjAddr: 0x16E08, symBinAddr: 0x10001AAF4, symSize: 0x70 }
  - { offset: 0x29971, size: 0x8, addend: 0x0, symName: __ZNKSt3__111__wrap_iterIP3ArcE4baseB8ne180100Ev, symObjAddr: 0x16EC0, symBinAddr: 0x10001ABAC, symSize: 0x60 }
  - { offset: 0x29997, size: 0x8, addend: 0x0, symName: __ZNKSt3__16__treeIiNS_4lessIiEENS_9allocatorIiEEE4sizeB8ne180100Ev, symObjAddr: 0x16F20, symBinAddr: 0x10001AC0C, symSize: 0x28 }
  - { offset: 0x299BD, size: 0x8, addend: 0x0, symName: __ZNKSt3__117__compressed_pairImNS_4lessIiEEE5firstB8ne180100Ev, symObjAddr: 0x16F48, symBinAddr: 0x10001AC34, symSize: 0x24 }
  - { offset: 0x299E3, size: 0x8, addend: 0x0, symName: __ZNKSt3__122__compressed_pair_elemImLi0ELb0EE5__getB8ne180100Ev, symObjAddr: 0x16F6C, symBinAddr: 0x10001AC58, symSize: 0x14 }
  - { offset: 0x29A08, size: 0x8, addend: 0x0, symName: __ZlsRNSt3__113basic_ostreamIcNS_11char_traitsIcEEEERK6Sommet, symObjAddr: 0x16F80, symBinAddr: 0x10001AC6C, symSize: 0xF0 }
  - { offset: 0x29A43, size: 0x8, addend: 0x0, symName: __ZNK8Obstacle13isPointInsideERK6Sommet, symObjAddr: 0x17070, symBinAddr: 0x10001AD5C, symSize: 0x748 }
  - { offset: 0x29AFB, size: 0x8, addend: 0x0, symName: __ZNK8Obstacle12isOnBoundaryERK6Sommet, symObjAddr: 0x177B8, symBinAddr: 0x10001B4A4, symSize: 0x7EC }
  - { offset: 0x29B95, size: 0x8, addend: 0x0, symName: __Z3absB8ne180100d, symObjAddr: 0x17FA4, symBinAddr: 0x10001BC90, symSize: 0x18 }
  - { offset: 0x29BC2, size: 0x8, addend: 0x0, symName: __ZN5GraphC2ERKS_, symObjAddr: 0x17FBC, symBinAddr: 0x10001BCA8, symSize: 0x114 }
  - { offset: 0x29BF7, size: 0x8, addend: 0x0, symName: __ZNSt3__16vectorI3ArcNS_9allocatorIS1_EEEC1ERKS4_, symObjAddr: 0x180D0, symBinAddr: 0x10001BDBC, symSize: 0x34 }
  - { offset: 0x29C32, size: 0x8, addend: 0x0, symName: __ZNSt3__16vectorI3ArcNS_9allocatorIS1_EEEC2ERKS4_, symObjAddr: 0x18104, symBinAddr: 0x10001BDF0, symSize: 0x378 }
  - { offset: 0x29C6F, size: 0x8, addend: 0x0, symName: __ZNSt3__116allocator_traitsINS_9allocatorI3ArcEEE37select_on_container_copy_constructionB8ne180100IS3_vvEES3_RKS3_, symObjAddr: 0x1847C, symBinAddr: 0x10001C168, symSize: 0x10 }
  - { offset: 0x29CA4, size: 0x8, addend: 0x0, symName: __ZNSt3__117__compressed_pairIP3ArcNS_9allocatorIS1_EEEC1B8ne180100IDnS4_EEOT_OT0_, symObjAddr: 0x1848C, symBinAddr: 0x10001C178, symSize: 0x3C }
  - { offset: 0x29CFC, size: 0x8, addend: 0x0, symName: __ZNSt3__16vectorI3ArcNS_9allocatorIS1_EEE16__init_with_sizeB8ne180100IPS1_S6_EEvT_T0_m, symObjAddr: 0x184C8, symBinAddr: 0x10001C1B4, symSize: 0x380 }
  - { offset: 0x29D78, size: 0x8, addend: 0x0, symName: __ZNSt3__117__compressed_pairIP3ArcNS_9allocatorIS1_EEEC2B8ne180100IDnS4_EEOT_OT0_, symObjAddr: 0x18848, symBinAddr: 0x10001C534, symSize: 0x44 }
  - { offset: 0x29DD0, size: 0x8, addend: 0x0, symName: __ZNSt3__122__compressed_pair_elemINS_9allocatorI3ArcEELi1ELb1EEC2B8ne180100IS3_vEEOT_, symObjAddr: 0x1888C, symBinAddr: 0x10001C578, symSize: 0x18 }
  - { offset: 0x29E12, size: 0x8, addend: 0x0, symName: __ZNSt3__16vectorI3ArcNS_9allocatorIS1_EEE16__destroy_vectorC1B8ne180100ERS4_, symObjAddr: 0x18B0C, symBinAddr: 0x10001C7F8, symSize: 0x34 }
  - { offset: 0x29E4B, size: 0x8, addend: 0x0, symName: __ZNSt3__16vectorI3ArcNS_9allocatorIS1_EEE11__vallocateB8ne180100Em, symObjAddr: 0x18B40, symBinAddr: 0x10001C82C, symSize: 0x418 }
  - { offset: 0x29E95, size: 0x8, addend: 0x0, symName: __ZNSt3__16vectorI3ArcNS_9allocatorIS1_EEE18__construct_at_endIPS1_S6_EEvT_T0_m, symObjAddr: 0x18F58, symBinAddr: 0x10001CC44, symSize: 0x3A4 }
  - { offset: 0x29F13, size: 0x8, addend: 0x0, symName: __ZNSt3__128__exception_guard_exceptionsINS_6vectorI3ArcNS_9allocatorIS2_EEE16__destroy_vectorEE10__completeB8ne180100Ev, symObjAddr: 0x192FC, symBinAddr: 0x10001CFE8, symSize: 0x8C }
  - { offset: 0x29F39, size: 0x8, addend: 0x0, symName: __ZNSt3__128__exception_guard_exceptionsINS_6vectorI3ArcNS_9allocatorIS2_EEE16__destroy_vectorEED1B8ne180100Ev, symObjAddr: 0x19388, symBinAddr: 0x10001D074, symSize: 0x2C }
  - { offset: 0x29F63, size: 0x8, addend: 0x0, symName: __ZNSt3__128__exception_guard_exceptionsINS_6vectorI3ArcNS_9allocatorIS2_EEE16__destroy_vectorEEC1B8ne180100ES6_, symObjAddr: 0x193B4, symBinAddr: 0x10001D0A0, symSize: 0x230 }
  - { offset: 0x29FA0, size: 0x8, addend: 0x0, symName: __ZNSt3__128__exception_guard_exceptionsINS_6vectorI3ArcNS_9allocatorIS2_EEE16__destroy_vectorEEC2B8ne180100ES6_, symObjAddr: 0x195E4, symBinAddr: 0x10001D2D0, symSize: 0x25C }
  - { offset: 0x29FDD, size: 0x8, addend: 0x0, symName: __ZNSt3__16vectorI3ArcNS_9allocatorIS1_EEE16__destroy_vectorC2B8ne180100ERS4_, symObjAddr: 0x19840, symBinAddr: 0x10001D52C, symSize: 0x70 }
  - { offset: 0x2A039, size: 0x8, addend: 0x0, symName: __ZNSt3__14pairIP3ArcS2_EC1B8ne180100IS2_S2_Li0EEEOT_OT0_, symObjAddr: 0x1A16C, symBinAddr: 0x10001DE58, symSize: 0x3C }
  - { offset: 0x2A097, size: 0x8, addend: 0x0, symName: __ZNSt3__14pairIP3ArcS2_EC2B8ne180100IS2_S2_Li0EEEOT_OT0_, symObjAddr: 0x1A1A8, symBinAddr: 0x10001DE94, symSize: 0x138 }
  - { offset: 0x2A100, size: 0x8, addend: 0x0, symName: __ZNKSt3__114__copy_trivialclB8ne180100I3ArcS2_Li0EEENS_4pairIPT_PT0_EES5_S5_S7_, symObjAddr: 0x1AF28, symBinAddr: 0x10001EC14, symSize: 0x228 }
  - { offset: 0x2A16C, size: 0x8, addend: 0x0, symName: __ZNSt3__14pairIP3ArcS2_EC1B8ne180100IRS2_S2_Li0EEEOT_OT0_, symObjAddr: 0x1B788, symBinAddr: 0x10001F474, symSize: 0x3C }
  - { offset: 0x2A1CA, size: 0x8, addend: 0x0, symName: __ZNSt3__14pairIP3ArcS2_EC2B8ne180100IRS2_S2_Li0EEEOT_OT0_, symObjAddr: 0x1B7C4, symBinAddr: 0x10001F4B0, symSize: 0x138 }
  - { offset: 0x2A228, size: 0x8, addend: 0x0, symName: __ZNSt3__118__unwrap_iter_implIP3ArcLb1EE8__unwrapB8ne180100ES2_, symObjAddr: 0x1B8FC, symBinAddr: 0x10001F5E8, symSize: 0x24 }
  - { offset: 0x2A24B, size: 0x8, addend: 0x0, symName: __ZNSt3__118__unwrap_iter_implIP3ArcLb1EE8__rewrapB8ne180100ES2_S2_, symObjAddr: 0x1B920, symBinAddr: 0x10001F60C, symSize: 0x50 }
  - { offset: 0x2A27C, size: 0x8, addend: 0x0, symName: __ZNSt3__128__exception_guard_exceptionsINS_6vectorI3ArcNS_9allocatorIS2_EEE16__destroy_vectorEED2B8ne180100Ev, symObjAddr: 0x1B970, symBinAddr: 0x10001F65C, symSize: 0xBC }
  - { offset: 0x2A2A6, size: 0x8, addend: 0x0, symName: __ZNSt3__16vectorI3ArcNS_9allocatorIS1_EEE16__destroy_vectorclB8ne180100Ev, symObjAddr: 0x1BA2C, symBinAddr: 0x10001F718, symSize: 0x228 }
  - { offset: 0x2A2CC, size: 0x8, addend: 0x0, symName: __ZNSt3__16vectorI3ArcNS_9allocatorIS1_EEE7__clearB8ne180100Ev, symObjAddr: 0x1BC54, symBinAddr: 0x10001F940, symSize: 0x64 }
  - { offset: 0x2A2F2, size: 0x8, addend: 0x0, symName: __ZNSt3__16vectorI3ArcNS_9allocatorIS1_EEE22__base_destruct_at_endB8ne180100EPS1_, symObjAddr: 0x1BCB8, symBinAddr: 0x10001F9A4, symSize: 0x114 }
  - { offset: 0x2A336, size: 0x8, addend: 0x0, symName: __ZN5GraphD2Ev, symObjAddr: 0x1BDCC, symBinAddr: 0x10001FAB8, symSize: 0x30 }
  - { offset: 0x2A362, size: 0x8, addend: 0x0, symName: __ZNSt3__16vectorI3ArcNS_9allocatorIS1_EEED1B8ne180100Ev, symObjAddr: 0x1BDFC, symBinAddr: 0x10001FAE8, symSize: 0x2C }
  - { offset: 0x2A38C, size: 0x8, addend: 0x0, symName: __ZNSt3__16vectorI3ArcNS_9allocatorIS1_EEED2B8ne180100Ev, symObjAddr: 0x1BE28, symBinAddr: 0x10001FB14, symSize: 0x22C }
  - { offset: 0x2A3B7, size: 0x8, addend: 0x0, symName: __ZNSt3__123__libcpp_numeric_limitsIdLb1EE8infinityB8ne180100Ev, symObjAddr: 0x1C054, symBinAddr: 0x10001FD40, symSize: 0xC }
  - { offset: 0x2A3CB, size: 0x8, addend: 0x0, symName: __ZNSt3__14pairINS_6vectorIdNS_9allocatorIdEEEENS1_IiNS2_IiEEEEEC2B8ne180100IRS4_RS6_Li0EEEOT_OT0_, symObjAddr: 0x1C060, symBinAddr: 0x10001FD4C, symSize: 0x70 }
  - { offset: 0x2A429, size: 0x8, addend: 0x0, symName: __ZNSt3__16vectorIdNS_9allocatorIdEEEC1ERKS3_, symObjAddr: 0x1C0D0, symBinAddr: 0x10001FDBC, symSize: 0x34 }
  - { offset: 0x2A464, size: 0x8, addend: 0x0, symName: __ZNSt3__16vectorIdNS_9allocatorIdEEEC2ERKS3_, symObjAddr: 0x1C104, symBinAddr: 0x10001FDF0, symSize: 0x378 }
  - { offset: 0x2A4AC, size: 0x8, addend: 0x0, symName: __ZNSt3__116allocator_traitsINS_9allocatorIdEEE37select_on_container_copy_constructionB8ne180100IS2_vvEES2_RKS2_, symObjAddr: 0x1C47C, symBinAddr: 0x100020168, symSize: 0x10 }
  - { offset: 0x2A4DB, size: 0x8, addend: 0x0, symName: __ZNKSt3__16vectorIdNS_9allocatorIdEEE7__allocB8ne180100Ev, symObjAddr: 0x1C48C, symBinAddr: 0x100020178, symSize: 0x28 }
  - { offset: 0x2A507, size: 0x8, addend: 0x0, symName: __ZNSt3__117__compressed_pairIPdNS_9allocatorIdEEEC1B8ne180100IDnS3_EEOT_OT0_, symObjAddr: 0x1C4B4, symBinAddr: 0x1000201A0, symSize: 0x3C }
  - { offset: 0x2A55F, size: 0x8, addend: 0x0, symName: __ZNSt3__16vectorIdNS_9allocatorIdEEE16__init_with_sizeB8ne180100IPdS5_EEvT_T0_m, symObjAddr: 0x1C4F0, symBinAddr: 0x1000201DC, symSize: 0x380 }
  - { offset: 0x2A5DB, size: 0x8, addend: 0x0, symName: __ZNKSt3__16vectorIdNS_9allocatorIdEEE4sizeB8ne180100Ev, symObjAddr: 0x1C870, symBinAddr: 0x10002055C, symSize: 0xB0 }
  - { offset: 0x2A601, size: 0x8, addend: 0x0, symName: __ZNKSt3__117__compressed_pairIPdNS_9allocatorIdEEE6secondB8ne180100Ev, symObjAddr: 0x1C920, symBinAddr: 0x10002060C, symSize: 0x24 }
  - { offset: 0x2A627, size: 0x8, addend: 0x0, symName: __ZNKSt3__122__compressed_pair_elemINS_9allocatorIdEELi1ELb1EE5__getB8ne180100Ev, symObjAddr: 0x1C944, symBinAddr: 0x100020630, symSize: 0x14 }
  - { offset: 0x2A64D, size: 0x8, addend: 0x0, symName: __ZNSt3__117__compressed_pairIPdNS_9allocatorIdEEEC2B8ne180100IDnS3_EEOT_OT0_, symObjAddr: 0x1C958, symBinAddr: 0x100020644, symSize: 0x44 }
  - { offset: 0x2A6A5, size: 0x8, addend: 0x0, symName: __ZNSt3__122__compressed_pair_elemIPdLi0ELb0EEC2B8ne180100IDnvEEOT_, symObjAddr: 0x1C99C, symBinAddr: 0x100020688, symSize: 0x64 }
  - { offset: 0x2A6E7, size: 0x8, addend: 0x0, symName: __ZNSt3__122__compressed_pair_elemINS_9allocatorIdEELi1ELb1EEC2B8ne180100IS2_vEEOT_, symObjAddr: 0x1CA00, symBinAddr: 0x1000206EC, symSize: 0x18 }
  - { offset: 0x2A729, size: 0x8, addend: 0x0, symName: __ZNSt3__16vectorIdNS_9allocatorIdEEE16__destroy_vectorC1B8ne180100ERS3_, symObjAddr: 0x1CC80, symBinAddr: 0x10002096C, symSize: 0x34 }
  - { offset: 0x2A762, size: 0x8, addend: 0x0, symName: __ZNSt3__16vectorIdNS_9allocatorIdEEE11__vallocateB8ne180100Em, symObjAddr: 0x1CCB4, symBinAddr: 0x1000209A0, symSize: 0x418 }
  - { offset: 0x2A7AC, size: 0x8, addend: 0x0, symName: __ZNSt3__16vectorIdNS_9allocatorIdEEE18__construct_at_endIPdS5_EEvT_T0_m, symObjAddr: 0x1D0CC, symBinAddr: 0x100020DB8, symSize: 0x3A4 }
  - { offset: 0x2A82A, size: 0x8, addend: 0x0, symName: __ZNSt3__128__exception_guard_exceptionsINS_6vectorIdNS_9allocatorIdEEE16__destroy_vectorEE10__completeB8ne180100Ev, symObjAddr: 0x1D470, symBinAddr: 0x10002115C, symSize: 0x8C }
  - { offset: 0x2A850, size: 0x8, addend: 0x0, symName: __ZNSt3__128__exception_guard_exceptionsINS_6vectorIdNS_9allocatorIdEEE16__destroy_vectorEED1B8ne180100Ev, symObjAddr: 0x1D4FC, symBinAddr: 0x1000211E8, symSize: 0x2C }
  - { offset: 0x2A87A, size: 0x8, addend: 0x0, symName: __ZNSt3__128__exception_guard_exceptionsINS_6vectorIdNS_9allocatorIdEEE16__destroy_vectorEEC1B8ne180100ES5_, symObjAddr: 0x1D528, symBinAddr: 0x100021214, symSize: 0x230 }
  - { offset: 0x2A8B7, size: 0x8, addend: 0x0, symName: __ZNSt3__128__exception_guard_exceptionsINS_6vectorIdNS_9allocatorIdEEE16__destroy_vectorEEC2B8ne180100ES5_, symObjAddr: 0x1D758, symBinAddr: 0x100021444, symSize: 0x25C }
  - { offset: 0x2A8F4, size: 0x8, addend: 0x0, symName: __ZNSt3__16vectorIdNS_9allocatorIdEEE16__destroy_vectorC2B8ne180100ERS3_, symObjAddr: 0x1D9B4, symBinAddr: 0x1000216A0, symSize: 0x70 }
  - { offset: 0x2A92D, size: 0x8, addend: 0x0, symName: __ZNKSt3__16vectorIdNS_9allocatorIdEEE8max_sizeEv, symObjAddr: 0x1DA24, symBinAddr: 0x100021710, symSize: 0x338 }
  - { offset: 0x2A956, size: 0x8, addend: 0x0, symName: __ZNKSt3__16vectorIdNS_9allocatorIdEEE20__throw_length_errorB8ne180100Ev, symObjAddr: 0x1DD5C, symBinAddr: 0x100021A48, symSize: 0x20 }
  - { offset: 0x2A97C, size: 0x8, addend: 0x0, symName: __ZNSt3__16vectorIdNS_9allocatorIdEEE7__allocB8ne180100Ev, symObjAddr: 0x1E000, symBinAddr: 0x100021CEC, symSize: 0x28 }
  - { offset: 0x2A9A2, size: 0x8, addend: 0x0, symName: __ZNSt3__16vectorIdNS_9allocatorIdEEE9__end_capB8ne180100Ev, symObjAddr: 0x1E028, symBinAddr: 0x100021D14, symSize: 0x28 }
  - { offset: 0x2A9C8, size: 0x8, addend: 0x0, symName: __ZNKSt3__16vectorIdNS_9allocatorIdEEE14__annotate_newB8ne180100Em, symObjAddr: 0x1E050, symBinAddr: 0x100021D3C, symSize: 0x80 }
  - { offset: 0x2A9FD, size: 0x8, addend: 0x0, symName: __ZNSt3__116allocator_traitsINS_9allocatorIdEEE8max_sizeB8ne180100IS2_vEEmRKS2_, symObjAddr: 0x1E0D0, symBinAddr: 0x100021DBC, symSize: 0x24 }
  - { offset: 0x2AA2B, size: 0x8, addend: 0x0, symName: __ZNKSt3__19allocatorIdE8max_sizeB8ne180100Ev, symObjAddr: 0x1E0F4, symBinAddr: 0x100021DE0, symSize: 0x14 }
  - { offset: 0x2AA51, size: 0x8, addend: 0x0, symName: __ZNSt3__19allocatorIdE8allocateB8ne180100Em, symObjAddr: 0x1E108, symBinAddr: 0x100021DF4, symSize: 0x5C }
  - { offset: 0x2AA85, size: 0x8, addend: 0x0, symName: __ZNSt3__117__compressed_pairIPdNS_9allocatorIdEEE6secondB8ne180100Ev, symObjAddr: 0x1E164, symBinAddr: 0x100021E50, symSize: 0x24 }
  - { offset: 0x2AAAB, size: 0x8, addend: 0x0, symName: __ZNSt3__122__compressed_pair_elemINS_9allocatorIdEELi1ELb1EE5__getB8ne180100Ev, symObjAddr: 0x1E188, symBinAddr: 0x100021E74, symSize: 0x14 }
  - { offset: 0x2AAD1, size: 0x8, addend: 0x0, symName: __ZNSt3__117__compressed_pairIPdNS_9allocatorIdEEE5firstB8ne180100Ev, symObjAddr: 0x1E19C, symBinAddr: 0x100021E88, symSize: 0x24 }
  - { offset: 0x2AAF7, size: 0x8, addend: 0x0, symName: __ZNSt3__122__compressed_pair_elemIPdLi0ELb0EE5__getB8ne180100Ev, symObjAddr: 0x1E1C0, symBinAddr: 0x100021EAC, symSize: 0x14 }
  - { offset: 0x2AB1D, size: 0x8, addend: 0x0, symName: __ZNKSt3__16vectorIdNS_9allocatorIdEEE31__annotate_contiguous_containerB8ne180100EPKvS5_, symObjAddr: 0x1E1D4, symBinAddr: 0x100021EC0, symSize: 0x8C }
  - { offset: 0x2AB7F, size: 0x8, addend: 0x0, symName: __ZNKSt3__16vectorIdNS_9allocatorIdEEE4dataB8ne180100Ev, symObjAddr: 0x1E260, symBinAddr: 0x100021F4C, symSize: 0x64 }
  - { offset: 0x2ABA5, size: 0x8, addend: 0x0, symName: __ZNKSt3__16vectorIdNS_9allocatorIdEEE8capacityB8ne180100Ev, symObjAddr: 0x1E2C4, symBinAddr: 0x100021FB0, symSize: 0xBC }
  - { offset: 0x2ABCB, size: 0x8, addend: 0x0, symName: __ZNKSt3__16vectorIdNS_9allocatorIdEEE9__end_capB8ne180100Ev, symObjAddr: 0x1E394, symBinAddr: 0x100022080, symSize: 0x28 }
  - { offset: 0x2ABF1, size: 0x8, addend: 0x0, symName: __ZNKSt3__117__compressed_pairIPdNS_9allocatorIdEEE5firstB8ne180100Ev, symObjAddr: 0x1E3BC, symBinAddr: 0x1000220A8, symSize: 0x24 }
  - { offset: 0x2AC17, size: 0x8, addend: 0x0, symName: __ZNKSt3__122__compressed_pair_elemIPdLi0ELb0EE5__getB8ne180100Ev, symObjAddr: 0x1E3E0, symBinAddr: 0x1000220CC, symSize: 0x14 }
  - { offset: 0x2AC59, size: 0x8, addend: 0x0, symName: __ZNSt3__16vectorIdNS_9allocatorIdEEE21_ConstructTransactionC1B8ne180100ERS3_m, symObjAddr: 0x1E3F4, symBinAddr: 0x1000220E0, symSize: 0x3C }
  - { offset: 0x2ACA1, size: 0x8, addend: 0x0, symName: __ZNSt3__16vectorIdNS_9allocatorIdEEE21_ConstructTransactionD1B8ne180100Ev, symObjAddr: 0x1E704, symBinAddr: 0x1000223F0, symSize: 0x2C }
  - { offset: 0x2ACCB, size: 0x8, addend: 0x0, symName: __ZNSt3__16vectorIdNS_9allocatorIdEEE21_ConstructTransactionC2B8ne180100ERS3_m, symObjAddr: 0x1E730, symBinAddr: 0x10002241C, symSize: 0x1D0 }
  - { offset: 0x2AD13, size: 0x8, addend: 0x0, symName: __ZNKSt3__16vectorIdNS_9allocatorIdEEE19__annotate_increaseB8ne180100Em, symObjAddr: 0x1E900, symBinAddr: 0x1000225EC, symSize: 0x98 }
  - { offset: 0x2AD6B, size: 0x8, addend: 0x0, symName: __ZNSt3__14pairIPdS1_EC1B8ne180100IS1_S1_Li0EEEOT_OT0_, symObjAddr: 0x1EF80, symBinAddr: 0x100022C6C, symSize: 0x3C }
  - { offset: 0x2ADC9, size: 0x8, addend: 0x0, symName: __ZNSt3__14pairIPdS1_EC2B8ne180100IS1_S1_Li0EEEOT_OT0_, symObjAddr: 0x1EFBC, symBinAddr: 0x100022CA8, symSize: 0x138 }
  - { offset: 0x2AE27, size: 0x8, addend: 0x0, symName: __ZNKSt3__114__copy_trivialclB8ne180100IddLi0EEENS_4pairIPT_PT0_EES4_S4_S6_, symObjAddr: 0x1FD3C, symBinAddr: 0x100023A28, symSize: 0x228 }
  - { offset: 0x2AE93, size: 0x8, addend: 0x0, symName: __ZNSt3__14pairIPdS1_EC1B8ne180100IRS1_S1_Li0EEEOT_OT0_, symObjAddr: 0x2059C, symBinAddr: 0x100024288, symSize: 0x3C }
  - { offset: 0x2AEF1, size: 0x8, addend: 0x0, symName: __ZNSt3__14pairIPdS1_EC2B8ne180100IRS1_S1_Li0EEEOT_OT0_, symObjAddr: 0x205D8, symBinAddr: 0x1000242C4, symSize: 0x138 }
  - { offset: 0x2AF4F, size: 0x8, addend: 0x0, symName: __ZNSt3__118__unwrap_iter_implIPdLb1EE8__unwrapB8ne180100ES1_, symObjAddr: 0x20710, symBinAddr: 0x1000243FC, symSize: 0x24 }
  - { offset: 0x2AF72, size: 0x8, addend: 0x0, symName: __ZNSt3__118__unwrap_iter_implIPdLb1EE8__rewrapB8ne180100ES1_S1_, symObjAddr: 0x20734, symBinAddr: 0x100024420, symSize: 0x50 }
  - { offset: 0x2AFA3, size: 0x8, addend: 0x0, symName: __ZNSt3__16vectorIdNS_9allocatorIdEEE21_ConstructTransactionD2B8ne180100Ev, symObjAddr: 0x20784, symBinAddr: 0x100024470, symSize: 0x278 }
  - { offset: 0x2AFCD, size: 0x8, addend: 0x0, symName: __ZNKSt3__16vectorIdNS_9allocatorIdEEE17__annotate_shrinkB8ne180100Em, symObjAddr: 0x209FC, symBinAddr: 0x1000246E8, symSize: 0x88 }
  - { offset: 0x2B002, size: 0x8, addend: 0x0, symName: __ZNSt3__128__exception_guard_exceptionsINS_6vectorIdNS_9allocatorIdEEE16__destroy_vectorEED2B8ne180100Ev, symObjAddr: 0x20A84, symBinAddr: 0x100024770, symSize: 0xBC }
  - { offset: 0x2B02C, size: 0x8, addend: 0x0, symName: __ZNSt3__16vectorIdNS_9allocatorIdEEE16__destroy_vectorclB8ne180100Ev, symObjAddr: 0x20B40, symBinAddr: 0x10002482C, symSize: 0x228 }
  - { offset: 0x2B052, size: 0x8, addend: 0x0, symName: __ZNSt3__16vectorIdNS_9allocatorIdEEE7__clearB8ne180100Ev, symObjAddr: 0x20D68, symBinAddr: 0x100024A54, symSize: 0x64 }
  - { offset: 0x2B078, size: 0x8, addend: 0x0, symName: __ZNKSt3__16vectorIdNS_9allocatorIdEEE17__annotate_deleteB8ne180100Ev, symObjAddr: 0x20DCC, symBinAddr: 0x100024AB8, symSize: 0x8C }
  - { offset: 0x2B09E, size: 0x8, addend: 0x0, symName: __ZNSt3__116allocator_traitsINS_9allocatorIdEEE10deallocateB8ne180100ERS2_Pdm, symObjAddr: 0x20E58, symBinAddr: 0x100024B44, symSize: 0x34 }
  - { offset: 0x2B0E0, size: 0x8, addend: 0x0, symName: __ZNSt3__16vectorIdNS_9allocatorIdEEE22__base_destruct_at_endB8ne180100EPd, symObjAddr: 0x20E8C, symBinAddr: 0x100024B78, symSize: 0x114 }
  - { offset: 0x2B124, size: 0x8, addend: 0x0, symName: __ZNSt3__116allocator_traitsINS_9allocatorIdEEE7destroyB8ne180100IdvEEvRS2_PT_, symObjAddr: 0x20FA0, symBinAddr: 0x100024C8C, symSize: 0x2C }
  - { offset: 0x2B161, size: 0x8, addend: 0x0, symName: __ZNSt3__19allocatorIdE7destroyB8ne180100EPd, symObjAddr: 0x20FCC, symBinAddr: 0x100024CB8, symSize: 0x14 }
  - { offset: 0x2B195, size: 0x8, addend: 0x0, symName: __ZNSt3__19allocatorIdE10deallocateB8ne180100EPdm, symObjAddr: 0x20FE0, symBinAddr: 0x100024CCC, symSize: 0x4C }
  - { offset: 0x2B1D7, size: 0x8, addend: 0x0, symName: __ZNKSt3__16__lessIvvEclB8ne180100IddEEbRKT_RKT0_, symObjAddr: 0x2120C, symBinAddr: 0x100024EF8, symSize: 0xBC }
  - { offset: 0x2B231, size: 0x8, addend: 0x0, symName: __ZNSt3__112basic_stringIcNS_11char_traitsIcEENS_9allocatorIcEEEC1B8ne180100ILi0EEEPKc, symObjAddr: 0x214A8, symBinAddr: 0x100025194, symSize: 0x34 }
  - { offset: 0x2B270, size: 0x8, addend: 0x0, symName: __ZNSt3__112basic_stringIcNS_11char_traitsIcEENS_9allocatorIcEEEC2B8ne180100ILi0EEEPKc, symObjAddr: 0x214DC, symBinAddr: 0x1000251C8, symSize: 0x208 }
  - { offset: 0x2B2B1, size: 0x8, addend: 0x0, symName: __ZNSt3__117__compressed_pairINS_12basic_stringIcNS_11char_traitsIcEENS_9allocatorIcEEE5__repES5_EC1B8ne180100INS_18__default_init_tagESA_EEOT_OT0_, symObjAddr: 0x216E4, symBinAddr: 0x1000253D0, symSize: 0x3C }
  - { offset: 0x2B309, size: 0x8, addend: 0x0, symName: __ZNSt3__111char_traitsIcE6lengthB8ne180100EPKc, symObjAddr: 0x21720, symBinAddr: 0x10002540C, symSize: 0x40 }
  - { offset: 0x2B32C, size: 0x8, addend: 0x0, symName: __ZNSt3__117__compressed_pairINS_12basic_stringIcNS_11char_traitsIcEENS_9allocatorIcEEE5__repES5_EC2B8ne180100INS_18__default_init_tagESA_EEOT_OT0_, symObjAddr: 0x21760, symBinAddr: 0x10002544C, symSize: 0x3C }
  - { offset: 0x2B384, size: 0x8, addend: 0x0, symName: __ZNSt3__122__compressed_pair_elemINS_12basic_stringIcNS_11char_traitsIcEENS_9allocatorIcEEE5__repELi0ELb0EEC2B8ne180100ENS_18__default_init_tagE, symObjAddr: 0x2179C, symBinAddr: 0x100025488, symSize: 0x14 }
  - { offset: 0x2B3B8, size: 0x8, addend: 0x0, symName: __ZNSt3__122__compressed_pair_elemINS_9allocatorIcEELi1ELb1EEC2B8ne180100ENS_18__default_init_tagE, symObjAddr: 0x217B0, symBinAddr: 0x10002549C, symSize: 0x2C }
  - { offset: 0x2B3EC, size: 0x8, addend: 0x0, symName: __ZNSt3__19allocatorIcEC2B8ne180100Ev, symObjAddr: 0x217DC, symBinAddr: 0x1000254C8, symSize: 0x2C }
  - { offset: 0x2B416, size: 0x8, addend: 0x0, symName: __ZNSt3__116__non_trivial_ifILb1ENS_9allocatorIcEEEC2B8ne180100Ev, symObjAddr: 0x21808, symBinAddr: 0x1000254F4, symSize: 0x14 }
  - { offset: 0x2B440, size: 0x8, addend: 0x0, symName: __ZN6SommetC2Edd, symObjAddr: 0x21840, symBinAddr: 0x10002552C, symSize: 0xBC }
  - { offset: 0x2B486, size: 0x8, addend: 0x0, symName: __ZNKSt3__111__wrap_iterIPNS_6vectorI6SommetNS_9allocatorIS2_EEEEE4baseB8ne180100Ev, symObjAddr: 0x21944, symBinAddr: 0x100025630, symSize: 0x60 }
  - { offset: 0x2B4AC, size: 0x8, addend: 0x0, symName: __ZN8ObstacleC2ERKNSt3__16vectorI6SommetNS0_9allocatorIS2_EEEE, symObjAddr: 0x219A4, symBinAddr: 0x100025690, symSize: 0x78 }
  - { offset: 0x2B4E4, size: 0x8, addend: 0x0, symName: __ZN8Obstacle17calculer_normalesEv, symObjAddr: 0x21A1C, symBinAddr: 0x100025708, symSize: 0x34C }
  - { offset: 0x2B54F, size: 0x8, addend: 0x0, symName: __ZNSt3__16vectorI6SommetNS_9allocatorIS1_EEE5clearB8ne180100Ev, symObjAddr: 0x21D68, symBinAddr: 0x100025A54, symSize: 0x44 }
  - { offset: 0x2B584, size: 0x8, addend: 0x0, symName: __ZNK7Segment7normaleEv, symObjAddr: 0x21DAC, symBinAddr: 0x100025A98, symSize: 0x33C }
  - { offset: 0x2B5BD, size: 0x8, addend: 0x0, symName: __ZNSt3__16vectorI6SommetNS_9allocatorIS1_EEE7__clearB8ne180100Ev, symObjAddr: 0x220E8, symBinAddr: 0x100025DD4, symSize: 0x64 }
  - { offset: 0x2B5E3, size: 0x8, addend: 0x0, symName: __ZNKSt3__16vectorI6SommetNS_9allocatorIS1_EEE17__annotate_shrinkB8ne180100Em, symObjAddr: 0x2214C, symBinAddr: 0x100025E38, symSize: 0x88 }
  - { offset: 0x2B618, size: 0x8, addend: 0x0, symName: __ZNSt3__16vectorI6SommetNS_9allocatorIS1_EEE22__base_destruct_at_endB8ne180100EPS1_, symObjAddr: 0x221D4, symBinAddr: 0x100025EC0, symSize: 0x114 }
  - { offset: 0x2B65C, size: 0x8, addend: 0x0, symName: __ZNSt3__116allocator_traitsINS_9allocatorI6SommetEEE7destroyB8ne180100IS2_vEEvRS3_PT_, symObjAddr: 0x222E8, symBinAddr: 0x100025FD4, symSize: 0x2C }
  - { offset: 0x2B699, size: 0x8, addend: 0x0, symName: __ZNSt3__16vectorI6SommetNS_9allocatorIS1_EEE7__allocB8ne180100Ev, symObjAddr: 0x22314, symBinAddr: 0x100026000, symSize: 0x28 }
  - { offset: 0x2B6BF, size: 0x8, addend: 0x0, symName: __ZNSt3__19allocatorI6SommetE7destroyB8ne180100EPS1_, symObjAddr: 0x22350, symBinAddr: 0x10002603C, symSize: 0x14 }
  - { offset: 0x2B6F3, size: 0x8, addend: 0x0, symName: __ZNSt3__117__compressed_pairIP6SommetNS_9allocatorIS1_EEE6secondB8ne180100Ev, symObjAddr: 0x22364, symBinAddr: 0x100026050, symSize: 0x24 }
  - { offset: 0x2B719, size: 0x8, addend: 0x0, symName: __ZNSt3__122__compressed_pair_elemINS_9allocatorI6SommetEELi1ELb1EE5__getB8ne180100Ev, symObjAddr: 0x22388, symBinAddr: 0x100026074, symSize: 0x14 }
  - { offset: 0x2B73F, size: 0x8, addend: 0x0, symName: __ZNKSt3__16vectorI6SommetNS_9allocatorIS1_EEE31__annotate_contiguous_containerB8ne180100EPKvS6_, symObjAddr: 0x2239C, symBinAddr: 0x100026088, symSize: 0x8C }
  - { offset: 0x2B7A1, size: 0x8, addend: 0x0, symName: __ZNKSt3__16vectorI6SommetNS_9allocatorIS1_EEE4dataB8ne180100Ev, symObjAddr: 0x22428, symBinAddr: 0x100026114, symSize: 0x64 }
  - { offset: 0x2B7C7, size: 0x8, addend: 0x0, symName: __ZNKSt3__16vectorI6SommetNS_9allocatorIS1_EEE8capacityB8ne180100Ev, symObjAddr: 0x2248C, symBinAddr: 0x100026178, symSize: 0xBC }
  - { offset: 0x2B7ED, size: 0x8, addend: 0x0, symName: __ZNKSt3__16vectorI6SommetNS_9allocatorIS1_EEE9__end_capB8ne180100Ev, symObjAddr: 0x22548, symBinAddr: 0x100026234, symSize: 0x28 }
  - { offset: 0x2B813, size: 0x8, addend: 0x0, symName: __ZNKSt3__117__compressed_pairIP6SommetNS_9allocatorIS1_EEE5firstB8ne180100Ev, symObjAddr: 0x22570, symBinAddr: 0x10002625C, symSize: 0x24 }
  - { offset: 0x2B839, size: 0x8, addend: 0x0, symName: __ZNKSt3__122__compressed_pair_elemIP6SommetLi0ELb0EE5__getB8ne180100Ev, symObjAddr: 0x22594, symBinAddr: 0x100026280, symSize: 0x14 }
  - { offset: 0x2B85F, size: 0x8, addend: 0x0, symName: __ZNK7Segment9directionEv, symObjAddr: 0x225A8, symBinAddr: 0x100026294, symSize: 0x280 }
  - { offset: 0x2B886, size: 0x8, addend: 0x0, symName: __ZN8ObstacleD2Ev, symObjAddr: 0x22828, symBinAddr: 0x100026514, symSize: 0x38 }
  - { offset: 0x2B8B2, size: 0x8, addend: 0x0, symName: __ZNSt3__14pairI8ObstacleiEC2B8ne180100IRS1_mLi0EEEOT_OT0_, symObjAddr: 0x22860, symBinAddr: 0x10002654C, symSize: 0xEC }
  - { offset: 0x2B910, size: 0x8, addend: 0x0, symName: __ZN8ObstacleC1ERKS_, symObjAddr: 0x2294C, symBinAddr: 0x100026638, symSize: 0x34 }
  - { offset: 0x2B945, size: 0x8, addend: 0x0, symName: __ZN8ObstacleC2ERKS_, symObjAddr: 0x22980, symBinAddr: 0x10002666C, symSize: 0x70 }
  - { offset: 0x2B97A, size: 0x8, addend: 0x0, symName: __ZNSt3__14pairI8ObstacleiED2Ev, symObjAddr: 0x229F0, symBinAddr: 0x1000266DC, symSize: 0x2C }
  - { offset: 0x2B9A6, size: 0x8, addend: 0x0, symName: __ZNKSt3__111__wrap_iterIP6SommetE4baseB8ne180100Ev, symObjAddr: 0x22A64, symBinAddr: 0x100026750, symSize: 0x60 }
  - { offset: 0x2B9CC, size: 0x8, addend: 0x0, symName: __ZNSt3__114basic_ofstreamIcNS_11char_traitsIcEEED2Ev, symObjAddr: 0x22AC4, symBinAddr: 0x1000267B0, symSize: 0x198 }
  - { offset: 0x2BA06, size: 0x8, addend: 0x0, symName: __ZTv0_n24_NSt3__114basic_ofstreamIcNS_11char_traitsIcEEED1Ev, symObjAddr: 0x22C5C, symBinAddr: 0x100026948, symSize: 0xB0 }
  - { offset: 0x2BA40, size: 0x8, addend: 0x0, symName: __ZNKSt3__113basic_ostreamIcNS_11char_traitsIcEEE6sentrycvbB8ne180100Ev, symObjAddr: 0x23544, symBinAddr: 0x100027230, symSize: 0x88 }
  - { offset: 0x2BA66, size: 0x8, addend: 0x0, symName: __ZNSt3__119ostreambuf_iteratorIcNS_11char_traitsIcEEEC1B8ne180100ERNS_13basic_ostreamIcS2_EE, symObjAddr: 0x23D98, symBinAddr: 0x100027A84, symSize: 0x34 }
  - { offset: 0x2BA9E, size: 0x8, addend: 0x0, symName: __ZNKSt3__18ios_base5flagsB8ne180100Ev, symObjAddr: 0x23DCC, symBinAddr: 0x100027AB8, symSize: 0x8C }
  - { offset: 0x2BAC6, size: 0x8, addend: 0x0, symName: __ZNKSt3__19basic_iosIcNS_11char_traitsIcEEE4fillB8ne180100Ev, symObjAddr: 0x23E58, symBinAddr: 0x100027B44, symSize: 0x198 }
  - { offset: 0x2BAEE, size: 0x8, addend: 0x0, symName: __ZNKSt3__119ostreambuf_iteratorIcNS_11char_traitsIcEEE6failedB8ne180100Ev, symObjAddr: 0x23FF0, symBinAddr: 0x100027CDC, symSize: 0x6C }
  - { offset: 0x2BB14, size: 0x8, addend: 0x0, symName: __ZNSt3__19basic_iosIcNS_11char_traitsIcEEE8setstateB8ne180100Ej, symObjAddr: 0x2405C, symBinAddr: 0x100027D48, symSize: 0x2C }
  - { offset: 0x2BB49, size: 0x8, addend: 0x0, symName: __ZNKSt3__18ios_base5widthB8ne180100Ev, symObjAddr: 0x24088, symBinAddr: 0x100027D74, symSize: 0x64 }
  - { offset: 0x2BB71, size: 0x8, addend: 0x0, symName: __ZNSt3__115basic_streambufIcNS_11char_traitsIcEEE5sputnB8ne180100EPKcl, symObjAddr: 0x240EC, symBinAddr: 0x100027DD8, symSize: 0xC8 }
  - { offset: 0x2BBB3, size: 0x8, addend: 0x0, symName: __ZNSt3__112basic_stringIcNS_11char_traitsIcEENS_9allocatorIcEEEC1B8ne180100Emc, symObjAddr: 0x241B4, symBinAddr: 0x100027EA0, symSize: 0x3C }
  - { offset: 0x2BBFB, size: 0x8, addend: 0x0, symName: __ZNSt3__112basic_stringIcNS_11char_traitsIcEENS_9allocatorIcEEE4dataB8ne180100Ev, symObjAddr: 0x241F0, symBinAddr: 0x100027EDC, symSize: 0x28 }
  - { offset: 0x2BC21, size: 0x8, addend: 0x0, symName: __ZNSt3__18ios_base5widthB8ne180100El, symObjAddr: 0x24218, symBinAddr: 0x100027F04, symSize: 0xB8 }
  - { offset: 0x2BC67, size: 0x8, addend: 0x0, symName: __ZNSt3__112basic_stringIcNS_11char_traitsIcEENS_9allocatorIcEEEC2B8ne180100Emc, symObjAddr: 0x242D0, symBinAddr: 0x100027FBC, symSize: 0x1FC }
  - { offset: 0x2BCB2, size: 0x8, addend: 0x0, symName: __ZNSt3__112basic_stringIcNS_11char_traitsIcEENS_9allocatorIcEEE13__get_pointerB8ne180100Ev, symObjAddr: 0x244E0, symBinAddr: 0x1000281CC, symSize: 0x54 }
  - { offset: 0x2BCD8, size: 0x8, addend: 0x0, symName: __ZNKSt3__112basic_stringIcNS_11char_traitsIcEENS_9allocatorIcEEE9__is_longB8ne180100Ev, symObjAddr: 0x24534, symBinAddr: 0x100028220, symSize: 0xA4 }
  - { offset: 0x2BCFE, size: 0x8, addend: 0x0, symName: __ZNSt3__112basic_stringIcNS_11char_traitsIcEENS_9allocatorIcEEE18__get_long_pointerB8ne180100Ev, symObjAddr: 0x245D8, symBinAddr: 0x1000282C4, symSize: 0x6C }
  - { offset: 0x2BD24, size: 0x8, addend: 0x0, symName: __ZNSt3__112basic_stringIcNS_11char_traitsIcEENS_9allocatorIcEEE19__get_short_pointerB8ne180100Ev, symObjAddr: 0x24644, symBinAddr: 0x100028330, symSize: 0x28 }
  - { offset: 0x2BD4A, size: 0x8, addend: 0x0, symName: __ZNKSt3__117__compressed_pairINS_12basic_stringIcNS_11char_traitsIcEENS_9allocatorIcEEE5__repES5_E5firstB8ne180100Ev, symObjAddr: 0x2466C, symBinAddr: 0x100028358, symSize: 0x24 }
  - { offset: 0x2BD70, size: 0x8, addend: 0x0, symName: __ZNKSt3__122__compressed_pair_elemINS_12basic_stringIcNS_11char_traitsIcEENS_9allocatorIcEEE5__repELi0ELb0EE5__getB8ne180100Ev, symObjAddr: 0x24690, symBinAddr: 0x10002837C, symSize: 0x14 }
  - { offset: 0x2BD96, size: 0x8, addend: 0x0, symName: __ZNSt3__117__compressed_pairINS_12basic_stringIcNS_11char_traitsIcEENS_9allocatorIcEEE5__repES5_E5firstB8ne180100Ev, symObjAddr: 0x246A4, symBinAddr: 0x100028390, symSize: 0x24 }
  - { offset: 0x2BDBC, size: 0x8, addend: 0x0, symName: __ZNSt3__122__compressed_pair_elemINS_12basic_stringIcNS_11char_traitsIcEENS_9allocatorIcEEE5__repELi0ELb0EE5__getB8ne180100Ev, symObjAddr: 0x246C8, symBinAddr: 0x1000283B4, symSize: 0x14 }
  - { offset: 0x2BDE2, size: 0x8, addend: 0x0, symName: __ZNSt3__114pointer_traitsIPcE10pointer_toB8ne180100ERc, symObjAddr: 0x246DC, symBinAddr: 0x1000283C8, symSize: 0x14 }
  - { offset: 0x2BE05, size: 0x8, addend: 0x0, symName: __ZNSt3__119ostreambuf_iteratorIcNS_11char_traitsIcEEEC2B8ne180100ERNS_13basic_ostreamIcS2_EE, symObjAddr: 0x246F0, symBinAddr: 0x1000283DC, symSize: 0x10C }
  - { offset: 0x2BE3D, size: 0x8, addend: 0x0, symName: __ZNKSt3__19basic_iosIcNS_11char_traitsIcEEE5rdbufB8ne180100Ev, symObjAddr: 0x247FC, symBinAddr: 0x1000284E8, symSize: 0x24 }
  - { offset: 0x2BE65, size: 0x8, addend: 0x0, symName: __ZNKSt3__18ios_base5rdbufB8ne180100Ev, symObjAddr: 0x24820, symBinAddr: 0x10002850C, symSize: 0x64 }
  - { offset: 0x2BE8B, size: 0x8, addend: 0x0, symName: __ZNSt3__111char_traitsIcE11eq_int_typeB8ne180100Eii, symObjAddr: 0x24884, symBinAddr: 0x100028570, symSize: 0x28 }
  - { offset: 0x2BEBE, size: 0x8, addend: 0x0, symName: __ZNSt3__111char_traitsIcE3eofB8ne180100Ev, symObjAddr: 0x248AC, symBinAddr: 0x100028598, symSize: 0x8 }
  - { offset: 0x2BED2, size: 0x8, addend: 0x0, symName: __ZNKSt3__19basic_iosIcNS_11char_traitsIcEEE5widenB8ne180100Ec, symObjAddr: 0x248B4, symBinAddr: 0x1000285A0, symSize: 0x2BC }
  - { offset: 0x2BF4F, size: 0x8, addend: 0x0, symName: __ZNKSt3__15ctypeIcE5widenB8ne180100Ec, symObjAddr: 0x24B9C, symBinAddr: 0x100028888, symSize: 0xBC }
  - { offset: 0x2BF84, size: 0x8, addend: 0x0, symName: __ZNSt3__18ios_base8setstateB8ne180100Ej, symObjAddr: 0x24C58, symBinAddr: 0x100028944, symSize: 0x9C }
  - { offset: 0x2BFBB, size: 0x8, addend: 0x0, symName: __ZNSt3__13setIiNS_4lessIiEENS_9allocatorIiEEEC2B8ne180100Ev, symObjAddr: 0x24CF4, symBinAddr: 0x1000289E0, symSize: 0x1D0 }
  - { offset: 0x2BFE6, size: 0x8, addend: 0x0, symName: __ZNSt3__16__treeIiNS_4lessIiEENS_9allocatorIiEEEC1ERKS2_, symObjAddr: 0x24EC4, symBinAddr: 0x100028BB0, symSize: 0x34 }
  - { offset: 0x2C021, size: 0x8, addend: 0x0, symName: __ZNSt3__16__treeIiNS_4lessIiEENS_9allocatorIiEEEC2ERKS2_, symObjAddr: 0x24EF8, symBinAddr: 0x100028BE4, symSize: 0x30C }
  - { offset: 0x2C05E, size: 0x8, addend: 0x0, symName: __ZNSt3__117__compressed_pairINS_15__tree_end_nodeIPNS_16__tree_node_baseIPvEEEENS_9allocatorINS_11__tree_nodeIiS3_EEEEEC1B8ne180100ILb1EvEEv, symObjAddr: 0x25204, symBinAddr: 0x100028EF0, symSize: 0x2C }
  - { offset: 0x2C099, size: 0x8, addend: 0x0, symName: __ZNSt3__117__compressed_pairImNS_4lessIiEEEC1B8ne180100IiRKS2_EEOT_OT0_, symObjAddr: 0x25230, symBinAddr: 0x100028F1C, symSize: 0x3C }
  - { offset: 0x2C0F1, size: 0x8, addend: 0x0, symName: __ZNSt3__16__treeIiNS_4lessIiEENS_9allocatorIiEEE10__end_nodeB8ne180100Ev, symObjAddr: 0x2526C, symBinAddr: 0x100028F58, symSize: 0x2C }
  - { offset: 0x2C117, size: 0x8, addend: 0x0, symName: __ZNSt3__16__treeIiNS_4lessIiEENS_9allocatorIiEEE12__begin_nodeB8ne180100Ev, symObjAddr: 0x25298, symBinAddr: 0x100028F84, symSize: 0x14 }
  - { offset: 0x2C13D, size: 0x8, addend: 0x0, symName: __ZNSt3__117__compressed_pairINS_15__tree_end_nodeIPNS_16__tree_node_baseIPvEEEENS_9allocatorINS_11__tree_nodeIiS3_EEEEEC2B8ne180100ILb1EvEEv, symObjAddr: 0x252AC, symBinAddr: 0x100028F98, symSize: 0x34 }
  - { offset: 0x2C172, size: 0x8, addend: 0x0, symName: __ZNSt3__122__compressed_pair_elemINS_15__tree_end_nodeIPNS_16__tree_node_baseIPvEEEELi0ELb0EEC2B8ne180100ENS_16__value_init_tagE, symObjAddr: 0x252E0, symBinAddr: 0x100028FCC, symSize: 0x2C }
  - { offset: 0x2C1A6, size: 0x8, addend: 0x0, symName: __ZNSt3__122__compressed_pair_elemINS_9allocatorINS_11__tree_nodeIiPvEEEELi1ELb1EEC2B8ne180100ENS_16__value_init_tagE, symObjAddr: 0x2530C, symBinAddr: 0x100028FF8, symSize: 0x2C }
  - { offset: 0x2C1DA, size: 0x8, addend: 0x0, symName: __ZNSt3__115__tree_end_nodeIPNS_16__tree_node_baseIPvEEEC1B8ne180100Ev, symObjAddr: 0x25338, symBinAddr: 0x100029024, symSize: 0x2C }
  - { offset: 0x2C204, size: 0x8, addend: 0x0, symName: __ZNSt3__115__tree_end_nodeIPNS_16__tree_node_baseIPvEEEC2B8ne180100Ev, symObjAddr: 0x25364, symBinAddr: 0x100029050, symSize: 0x60 }
  - { offset: 0x2C22E, size: 0x8, addend: 0x0, symName: __ZNSt3__19allocatorINS_11__tree_nodeIiPvEEEC2B8ne180100Ev, symObjAddr: 0x253C4, symBinAddr: 0x1000290B0, symSize: 0x2C }
  - { offset: 0x2C258, size: 0x8, addend: 0x0, symName: __ZNSt3__116__non_trivial_ifILb1ENS_9allocatorINS_11__tree_nodeIiPvEEEEEC2B8ne180100Ev, symObjAddr: 0x253F0, symBinAddr: 0x1000290DC, symSize: 0x14 }
  - { offset: 0x2C282, size: 0x8, addend: 0x0, symName: __ZNSt3__117__compressed_pairImNS_4lessIiEEEC2B8ne180100IiRKS2_EEOT_OT0_, symObjAddr: 0x25404, symBinAddr: 0x1000290F0, symSize: 0x44 }
  - { offset: 0x2C2DA, size: 0x8, addend: 0x0, symName: __ZNSt3__122__compressed_pair_elemImLi0ELb0EEC2B8ne180100IivEEOT_, symObjAddr: 0x25448, symBinAddr: 0x100029134, symSize: 0xD8 }
  - { offset: 0x2C31C, size: 0x8, addend: 0x0, symName: __ZNSt3__122__compressed_pair_elemINS_4lessIiEELi1ELb1EEC2B8ne180100IRKS2_vEEOT_, symObjAddr: 0x25520, symBinAddr: 0x10002920C, symSize: 0x18 }
  - { offset: 0x2C35E, size: 0x8, addend: 0x0, symName: __ZNSt3__114pointer_traitsIPNS_15__tree_end_nodeIPNS_16__tree_node_baseIPvEEEEE10pointer_toB8ne180100ERS6_, symObjAddr: 0x25538, symBinAddr: 0x100029224, symSize: 0x14 }
  - { offset: 0x2C381, size: 0x8, addend: 0x0, symName: __ZNSt3__117__compressed_pairINS_15__tree_end_nodeIPNS_16__tree_node_baseIPvEEEENS_9allocatorINS_11__tree_nodeIiS3_EEEEE5firstB8ne180100Ev, symObjAddr: 0x2554C, symBinAddr: 0x100029238, symSize: 0x24 }
  - { offset: 0x2C3A7, size: 0x8, addend: 0x0, symName: __ZNSt3__122__compressed_pair_elemINS_15__tree_end_nodeIPNS_16__tree_node_baseIPvEEEELi0ELb0EE5__getB8ne180100Ev, symObjAddr: 0x25570, symBinAddr: 0x10002925C, symSize: 0x14 }
  - { offset: 0x2C3CD, size: 0x8, addend: 0x0, symName: __ZNSt3__13setIiNS_4lessIiEENS_9allocatorIiEEED2B8ne180100Ev, symObjAddr: 0x25584, symBinAddr: 0x100029270, symSize: 0x2C }
  - { offset: 0x2C3F7, size: 0x8, addend: 0x0, symName: __ZNSt3__16__treeIiNS_4lessIiEENS_9allocatorIiEEED1Ev, symObjAddr: 0x255B0, symBinAddr: 0x10002929C, symSize: 0x2C }
  - { offset: 0x2C423, size: 0x8, addend: 0x0, symName: __ZNSt3__16__treeIiNS_4lessIiEENS_9allocatorIiEEED2Ev, symObjAddr: 0x255DC, symBinAddr: 0x1000292C8, symSize: 0x38 }
  - { offset: 0x2C44F, size: 0x8, addend: 0x0, symName: __ZNSt3__16__treeIiNS_4lessIiEENS_9allocatorIiEEE7destroyEPNS_11__tree_nodeIiPvEE, symObjAddr: 0x25614, symBinAddr: 0x100029300, symSize: 0x134 }
  - { offset: 0x2C49B, size: 0x8, addend: 0x0, symName: __ZNKSt3__16__treeIiNS_4lessIiEENS_9allocatorIiEEE6__rootB8ne180100Ev, symObjAddr: 0x25748, symBinAddr: 0x100029434, symSize: 0x6C }
  - { offset: 0x2C4C1, size: 0x8, addend: 0x0, symName: __ZNSt3__16__treeIiNS_4lessIiEENS_9allocatorIiEEE12__node_allocB8ne180100Ev, symObjAddr: 0x257B4, symBinAddr: 0x1000294A0, symSize: 0x28 }
  - { offset: 0x2C4E7, size: 0x8, addend: 0x0, symName: __ZNSt3__116allocator_traitsINS_9allocatorINS_11__tree_nodeIiPvEEEEE7destroyB8ne180100IivvEEvRS5_PT_, symObjAddr: 0x257DC, symBinAddr: 0x1000294C8, symSize: 0x28 }
  - { offset: 0x2C521, size: 0x8, addend: 0x0, symName: __ZNSt3__122__tree_key_value_typesIiE9__get_ptrB8ne180100ERi, symObjAddr: 0x25804, symBinAddr: 0x1000294F0, symSize: 0x14 }
  - { offset: 0x2C545, size: 0x8, addend: 0x0, symName: __ZNSt3__116allocator_traitsINS_9allocatorINS_11__tree_nodeIiPvEEEEE10deallocateB8ne180100ERS5_PS4_m, symObjAddr: 0x25818, symBinAddr: 0x100029504, symSize: 0x34 }
  - { offset: 0x2C587, size: 0x8, addend: 0x0, symName: __ZNSt3__117__compressed_pairINS_15__tree_end_nodeIPNS_16__tree_node_baseIPvEEEENS_9allocatorINS_11__tree_nodeIiS3_EEEEE6secondB8ne180100Ev, symObjAddr: 0x2584C, symBinAddr: 0x100029538, symSize: 0x24 }
  - { offset: 0x2C5AD, size: 0x8, addend: 0x0, symName: __ZNSt3__122__compressed_pair_elemINS_9allocatorINS_11__tree_nodeIiPvEEEELi1ELb1EE5__getB8ne180100Ev, symObjAddr: 0x25870, symBinAddr: 0x10002955C, symSize: 0x14 }
  - { offset: 0x2C5D3, size: 0x8, addend: 0x0, symName: __ZNSt3__19allocatorINS_11__tree_nodeIiPvEEE10deallocateB8ne180100EPS3_m, symObjAddr: 0x25894, symBinAddr: 0x100029580, symSize: 0x4C }
  - { offset: 0x2C615, size: 0x8, addend: 0x0, symName: __ZNKSt3__16__treeIiNS_4lessIiEENS_9allocatorIiEEE10__end_nodeB8ne180100Ev, symObjAddr: 0x258E0, symBinAddr: 0x1000295CC, symSize: 0x2C }
  - { offset: 0x2C63B, size: 0x8, addend: 0x0, symName: __ZNKSt3__117__compressed_pairINS_15__tree_end_nodeIPNS_16__tree_node_baseIPvEEEENS_9allocatorINS_11__tree_nodeIiS3_EEEEE5firstB8ne180100Ev, symObjAddr: 0x2590C, symBinAddr: 0x1000295F8, symSize: 0x24 }
  - { offset: 0x2C661, size: 0x8, addend: 0x0, symName: __ZNKSt3__122__compressed_pair_elemINS_15__tree_end_nodeIPNS_16__tree_node_baseIPvEEEELi0ELb0EE5__getB8ne180100Ev, symObjAddr: 0x25930, symBinAddr: 0x10002961C, symSize: 0x14 }
  - { offset: 0x2C687, size: 0x8, addend: 0x0, symName: __ZNSt3__16__treeIiNS_4lessIiEENS_9allocatorIiEEE15__insert_uniqueB8ne180100ERKi, symObjAddr: 0x25944, symBinAddr: 0x100029630, symSize: 0x230 }
  - { offset: 0x2C6BE, size: 0x8, addend: 0x0, symName: __ZNSt3__14pairINS_21__tree_const_iteratorIiPNS_11__tree_nodeIiPvEElEEbEC1B8ne180100INS_15__tree_iteratorIiS5_lEEbLi0EEEONS0_IT_T0_EE, symObjAddr: 0x25B74, symBinAddr: 0x100029860, symSize: 0x34 }
  - { offset: 0x2C70E, size: 0x8, addend: 0x0, symName: __ZNSt3__16__treeIiNS_4lessIiEENS_9allocatorIiEEE25__emplace_unique_key_argsIiJRKiEEENS_4pairINS_15__tree_iteratorIiPNS_11__tree_nodeIiPvEElEEbEERKT_DpOT0_, symObjAddr: 0x25BA8, symBinAddr: 0x100029894, symSize: 0x508 }
  - { offset: 0x2C7CA, size: 0x8, addend: 0x0, symName: __ZNSt3__122__tree_key_value_typesIiE9__get_keyB8ne180100ERKi, symObjAddr: 0x260B0, symBinAddr: 0x100029D9C, symSize: 0x14 }
  - { offset: 0x2C7EE, size: 0x8, addend: 0x0, symName: __ZNSt3__16__treeIiNS_4lessIiEENS_9allocatorIiEEE12__find_equalIiEERPNS_16__tree_node_baseIPvEERPNS_15__tree_end_nodeISA_EERKT_, symObjAddr: 0x260C4, symBinAddr: 0x100029DB0, symSize: 0x3F0 }
  - { offset: 0x2C85B, size: 0x8, addend: 0x0, symName: __ZNSt3__16__treeIiNS_4lessIiEENS_9allocatorIiEEE16__construct_nodeIJRKiEEENS_10unique_ptrINS_11__tree_nodeIiPvEENS_22__tree_node_destructorINS3_ISC_EEEEEEDpOT_, symObjAddr: 0x264B4, symBinAddr: 0x10002A1A0, symSize: 0x390 }
  - { offset: 0x2C8C0, size: 0x8, addend: 0x0, symName: __ZNSt3__16__treeIiNS_4lessIiEENS_9allocatorIiEEE16__insert_node_atEPNS_15__tree_end_nodeIPNS_16__tree_node_baseIPvEEEERSA_SA_, symObjAddr: 0x26844, symBinAddr: 0x10002A530, symSize: 0x370 }
  - { offset: 0x2C915, size: 0x8, addend: 0x0, symName: __ZNKSt3__110unique_ptrINS_11__tree_nodeIiPvEENS_22__tree_node_destructorINS_9allocatorIS3_EEEEE3getB8ne180100Ev, symObjAddr: 0x26BB4, symBinAddr: 0x10002A8A0, symSize: 0x6C }
  - { offset: 0x2C93B, size: 0x8, addend: 0x0, symName: __ZNSt3__110unique_ptrINS_11__tree_nodeIiPvEENS_22__tree_node_destructorINS_9allocatorIS3_EEEEE7releaseB8ne180100Ev, symObjAddr: 0x26C20, symBinAddr: 0x10002A90C, symSize: 0xB8 }
  - { offset: 0x2C970, size: 0x8, addend: 0x0, symName: __ZNSt3__110unique_ptrINS_11__tree_nodeIiPvEENS_22__tree_node_destructorINS_9allocatorIS3_EEEEED1B8ne180100Ev, symObjAddr: 0x26CD8, symBinAddr: 0x10002A9C4, symSize: 0x2C }
  - { offset: 0x2C99A, size: 0x8, addend: 0x0, symName: __ZNSt3__115__tree_iteratorIiPNS_11__tree_nodeIiPvEElEC1B8ne180100ES4_, symObjAddr: 0x26D04, symBinAddr: 0x10002A9F0, symSize: 0x34 }
  - { offset: 0x2C9DF, size: 0x8, addend: 0x0, symName: __ZNSt3__14pairINS_15__tree_iteratorIiPNS_11__tree_nodeIiPvEElEEbEC1B8ne180100IS6_RbLi0EEEOT_OT0_, symObjAddr: 0x26D38, symBinAddr: 0x10002AA24, symSize: 0x3C }
  - { offset: 0x2CA3D, size: 0x8, addend: 0x0, symName: __ZNKSt3__16__treeIiNS_4lessIiEENS_9allocatorIiEEE10__root_ptrB8ne180100Ev, symObjAddr: 0x26D74, symBinAddr: 0x10002AA60, symSize: 0x24 }
  - { offset: 0x2CA63, size: 0x8, addend: 0x0, symName: __ZNSt3__16__treeIiNS_4lessIiEENS_9allocatorIiEEE10value_compB8ne180100Ev, symObjAddr: 0x26D98, symBinAddr: 0x10002AA84, symSize: 0x28 }
  - { offset: 0x2CA89, size: 0x8, addend: 0x0, symName: __ZNKSt3__14lessIiEclB8ne180100ERKiS3_, symObjAddr: 0x26DC0, symBinAddr: 0x10002AAAC, symSize: 0x10C }
  - { offset: 0x2CACD, size: 0x8, addend: 0x0, symName: __ZNSt3__117__compressed_pairImNS_4lessIiEEE6secondB8ne180100Ev, symObjAddr: 0x26ECC, symBinAddr: 0x10002ABB8, symSize: 0x24 }
  - { offset: 0x2CAF3, size: 0x8, addend: 0x0, symName: __ZNSt3__122__compressed_pair_elemINS_4lessIiEELi1ELb1EE5__getB8ne180100Ev, symObjAddr: 0x26EF0, symBinAddr: 0x10002ABDC, symSize: 0x14 }
  - { offset: 0x2CB19, size: 0x8, addend: 0x0, symName: __ZNSt3__116allocator_traitsINS_9allocatorINS_11__tree_nodeIiPvEEEEE8allocateB8ne180100ERS5_m, symObjAddr: 0x26F04, symBinAddr: 0x10002ABF0, symSize: 0x2C }
  - { offset: 0x2CB4C, size: 0x8, addend: 0x0, symName: __ZNSt3__122__tree_node_destructorINS_9allocatorINS_11__tree_nodeIiPvEEEEEC1B8ne180100ERS5_b, symObjAddr: 0x26F30, symBinAddr: 0x10002AC1C, symSize: 0x48 }
  - { offset: 0x2CB9A, size: 0x8, addend: 0x0, symName: __ZNSt3__110unique_ptrINS_11__tree_nodeIiPvEENS_22__tree_node_destructorINS_9allocatorIS3_EEEEEC1B8ne180100ILb1EvEEPS3_NS_16__dependent_typeINS_27__unique_ptr_deleter_sfinaeIS7_EEXT_EE20__good_rval_ref_typeE, symObjAddr: 0x26F78, symBinAddr: 0x10002AC64, symSize: 0x3C }
  - { offset: 0x2CBEB, size: 0x8, addend: 0x0, symName: __ZNSt3__116allocator_traitsINS_9allocatorINS_11__tree_nodeIiPvEEEEE9constructB8ne180100IiJRKiEvEEvRS5_PT_DpOT0_, symObjAddr: 0x26FB4, symBinAddr: 0x10002ACA0, symSize: 0x34 }
  - { offset: 0x2CC42, size: 0x8, addend: 0x0, symName: __ZNKSt3__110unique_ptrINS_11__tree_nodeIiPvEENS_22__tree_node_destructorINS_9allocatorIS3_EEEEEptB8ne180100Ev, symObjAddr: 0x26FE8, symBinAddr: 0x10002ACD4, symSize: 0x6C }
  - { offset: 0x2CC68, size: 0x8, addend: 0x0, symName: __ZNSt3__110unique_ptrINS_11__tree_nodeIiPvEENS_22__tree_node_destructorINS_9allocatorIS3_EEEEE11get_deleterB8ne180100Ev, symObjAddr: 0x27054, symBinAddr: 0x10002AD40, symSize: 0x24 }
  - { offset: 0x2CC8E, size: 0x8, addend: 0x0, symName: __ZNSt3__19allocatorINS_11__tree_nodeIiPvEEE8allocateB8ne180100Em, symObjAddr: 0x27078, symBinAddr: 0x10002AD64, symSize: 0x5C }
  - { offset: 0x2CCCD, size: 0x8, addend: 0x0, symName: __ZNSt3__116allocator_traitsINS_9allocatorINS_11__tree_nodeIiPvEEEEE8max_sizeB8ne180100IS5_vEEmRKS5_, symObjAddr: 0x270D4, symBinAddr: 0x10002ADC0, symSize: 0x24 }
  - { offset: 0x2CCFB, size: 0x8, addend: 0x0, symName: __ZNKSt3__19allocatorINS_11__tree_nodeIiPvEEE8max_sizeB8ne180100Ev, symObjAddr: 0x270F8, symBinAddr: 0x10002ADE4, symSize: 0x14 }
  - { offset: 0x2CD21, size: 0x8, addend: 0x0, symName: __ZNSt3__122__tree_node_destructorINS_9allocatorINS_11__tree_nodeIiPvEEEEEC2B8ne180100ERS5_b, symObjAddr: 0x2710C, symBinAddr: 0x10002ADF8, symSize: 0xF0 }
  - { offset: 0x2CD69, size: 0x8, addend: 0x0, symName: __ZNSt3__110unique_ptrINS_11__tree_nodeIiPvEENS_22__tree_node_destructorINS_9allocatorIS3_EEEEEC2B8ne180100ILb1EvEEPS3_NS_16__dependent_typeINS_27__unique_ptr_deleter_sfinaeIS7_EEXT_EE20__good_rval_ref_typeE, symObjAddr: 0x271FC, symBinAddr: 0x10002AEE8, symSize: 0x258 }
  - { offset: 0x2CDC0, size: 0x8, addend: 0x0, symName: __ZNSt3__117__compressed_pairIPNS_11__tree_nodeIiPvEENS_22__tree_node_destructorINS_9allocatorIS3_EEEEEC1B8ne180100IRS4_S8_EEOT_OT0_, symObjAddr: 0x27454, symBinAddr: 0x10002B140, symSize: 0x3C }
  - { offset: 0x2CE18, size: 0x8, addend: 0x0, symName: __ZNSt3__117__compressed_pairIPNS_11__tree_nodeIiPvEENS_22__tree_node_destructorINS_9allocatorIS3_EEEEEC2B8ne180100IRS4_S8_EEOT_OT0_, symObjAddr: 0x27490, symBinAddr: 0x10002B17C, symSize: 0x48 }
  - { offset: 0x2CE70, size: 0x8, addend: 0x0, symName: __ZNSt3__122__compressed_pair_elemIPNS_11__tree_nodeIiPvEELi0ELb0EEC2B8ne180100IRS4_vEEOT_, symObjAddr: 0x274D8, symBinAddr: 0x10002B1C4, symSize: 0xB0 }
  - { offset: 0x2CEB2, size: 0x8, addend: 0x0, symName: __ZNSt3__122__compressed_pair_elemINS_22__tree_node_destructorINS_9allocatorINS_11__tree_nodeIiPvEEEEEELi1ELb0EEC2B8ne180100IS7_vEEOT_, symObjAddr: 0x27588, symBinAddr: 0x10002B274, symSize: 0x38 }
  - { offset: 0x2CEF4, size: 0x8, addend: 0x0, symName: __ZNSt3__19allocatorINS_11__tree_nodeIiPvEEE9constructB8ne180100IiJRKiEEEvPT_DpOT0_, symObjAddr: 0x275C0, symBinAddr: 0x10002B2AC, symSize: 0x104 }
  - { offset: 0x2CF4A, size: 0x8, addend: 0x0, symName: __ZNKSt3__117__compressed_pairIPNS_11__tree_nodeIiPvEENS_22__tree_node_destructorINS_9allocatorIS3_EEEEE5firstB8ne180100Ev, symObjAddr: 0x276C4, symBinAddr: 0x10002B3B0, symSize: 0x24 }
  - { offset: 0x2CF70, size: 0x8, addend: 0x0, symName: __ZNKSt3__122__compressed_pair_elemIPNS_11__tree_nodeIiPvEELi0ELb0EE5__getB8ne180100Ev, symObjAddr: 0x276E8, symBinAddr: 0x10002B3D4, symSize: 0x14 }
  - { offset: 0x2CF96, size: 0x8, addend: 0x0, symName: __ZNSt3__117__compressed_pairIPNS_11__tree_nodeIiPvEENS_22__tree_node_destructorINS_9allocatorIS3_EEEEE6secondB8ne180100Ev, symObjAddr: 0x276FC, symBinAddr: 0x10002B3E8, symSize: 0x28 }
  - { offset: 0x2CFBC, size: 0x8, addend: 0x0, symName: __ZNSt3__122__compressed_pair_elemINS_22__tree_node_destructorINS_9allocatorINS_11__tree_nodeIiPvEEEEEELi1ELb0EE5__getB8ne180100Ev, symObjAddr: 0x27724, symBinAddr: 0x10002B410, symSize: 0x14 }
  - { offset: 0x2CFE2, size: 0x8, addend: 0x0, symName: __ZNSt3__16__treeIiNS_4lessIiEENS_9allocatorIiEEE4sizeB8ne180100Ev, symObjAddr: 0x28098, symBinAddr: 0x10002BD84, symSize: 0x28 }
  - { offset: 0x2D008, size: 0x8, addend: 0x0, symName: __ZNKSt3__116__tree_node_baseIPvE15__parent_unsafeB8ne180100Ev, symObjAddr: 0x280C0, symBinAddr: 0x10002BDAC, symSize: 0x64 }
  - { offset: 0x2D02E, size: 0x8, addend: 0x0, symName: __ZNSt3__116__tree_node_baseIPvE12__set_parentB8ne180100EPS2_, symObjAddr: 0x288A4, symBinAddr: 0x10002C590, symSize: 0x74 }
  - { offset: 0x2D063, size: 0x8, addend: 0x0, symName: __ZNSt3__117__compressed_pairImNS_4lessIiEEE5firstB8ne180100Ev, symObjAddr: 0x28918, symBinAddr: 0x10002C604, symSize: 0x24 }
  - { offset: 0x2D089, size: 0x8, addend: 0x0, symName: __ZNSt3__122__compressed_pair_elemImLi0ELb0EE5__getB8ne180100Ev, symObjAddr: 0x2893C, symBinAddr: 0x10002C628, symSize: 0x14 }
  - { offset: 0x2D0AF, size: 0x8, addend: 0x0, symName: __ZNSt3__117__compressed_pairIPNS_11__tree_nodeIiPvEENS_22__tree_node_destructorINS_9allocatorIS3_EEEEE5firstB8ne180100Ev, symObjAddr: 0x28950, symBinAddr: 0x10002C63C, symSize: 0x24 }
  - { offset: 0x2D0D5, size: 0x8, addend: 0x0, symName: __ZNSt3__122__compressed_pair_elemIPNS_11__tree_nodeIiPvEELi0ELb0EE5__getB8ne180100Ev, symObjAddr: 0x28974, symBinAddr: 0x10002C660, symSize: 0x14 }
  - { offset: 0x2D0FB, size: 0x8, addend: 0x0, symName: __ZNSt3__110unique_ptrINS_11__tree_nodeIiPvEENS_22__tree_node_destructorINS_9allocatorIS3_EEEEED2B8ne180100Ev, symObjAddr: 0x28988, symBinAddr: 0x10002C674, symSize: 0x30 }
  - { offset: 0x2D125, size: 0x8, addend: 0x0, symName: __ZNSt3__110unique_ptrINS_11__tree_nodeIiPvEENS_22__tree_node_destructorINS_9allocatorIS3_EEEEE5resetB8ne180100EPS3_, symObjAddr: 0x289B8, symBinAddr: 0x10002C6A4, symSize: 0xEC }
  - { offset: 0x2D169, size: 0x8, addend: 0x0, symName: __ZNSt3__122__tree_node_destructorINS_9allocatorINS_11__tree_nodeIiPvEEEEEclB8ne180100EPS4_, symObjAddr: 0x28AA4, symBinAddr: 0x10002C790, symSize: 0x160 }
  - { offset: 0x2D19E, size: 0x8, addend: 0x0, symName: __ZNSt3__115__tree_iteratorIiPNS_11__tree_nodeIiPvEElEC2B8ne180100ES4_, symObjAddr: 0x28C04, symBinAddr: 0x10002C8F0, symSize: 0x70 }
  - { offset: 0x2D1D7, size: 0x8, addend: 0x0, symName: __ZNSt3__14pairINS_15__tree_iteratorIiPNS_11__tree_nodeIiPvEElEEbEC2B8ne180100IS6_RbLi0EEEOT_OT0_, symObjAddr: 0x28C74, symBinAddr: 0x10002C960, symSize: 0x118 }
  - { offset: 0x2D235, size: 0x8, addend: 0x0, symName: __ZNSt3__14pairINS_21__tree_const_iteratorIiPNS_11__tree_nodeIiPvEElEEbEC2B8ne180100INS_15__tree_iteratorIiS5_lEEbLi0EEEONS0_IT_T0_EE, symObjAddr: 0x28D8C, symBinAddr: 0x10002CA78, symSize: 0x2E0 }
  - { offset: 0x2D287, size: 0x8, addend: 0x0, symName: __ZNSt3__121__tree_const_iteratorIiPNS_11__tree_nodeIiPvEElEC1B8ne180100ENS_15__tree_iteratorIiS4_lEE, symObjAddr: 0x2906C, symBinAddr: 0x10002CD58, symSize: 0x230 }
  - { offset: 0x2D2C5, size: 0x8, addend: 0x0, symName: __ZNSt3__121__tree_const_iteratorIiPNS_11__tree_nodeIiPvEElEC2B8ne180100ENS_15__tree_iteratorIiS4_lEE, symObjAddr: 0x2929C, symBinAddr: 0x10002CF88, symSize: 0x268 }
  - { offset: 0x2D303, size: 0x8, addend: 0x0, symName: __ZNSt3__16vectorIiNS_9allocatorIiEEED2B8ne180100Ev, symObjAddr: 0x29504, symBinAddr: 0x10002D1F0, symSize: 0x230 }
  - { offset: 0x2D32E, size: 0x8, addend: 0x0, symName: __ZNSt3__16vectorIiNS_9allocatorIiEEE16__destroy_vectorC1B8ne180100ERS3_, symObjAddr: 0x29734, symBinAddr: 0x10002D420, symSize: 0x34 }
  - { offset: 0x2D367, size: 0x8, addend: 0x0, symName: __ZNSt3__16vectorIiNS_9allocatorIiEEE16__destroy_vectorclB8ne180100Ev, symObjAddr: 0x29768, symBinAddr: 0x10002D454, symSize: 0x228 }
  - { offset: 0x2D38D, size: 0x8, addend: 0x0, symName: __ZNSt3__16vectorIiNS_9allocatorIiEEE16__destroy_vectorC2B8ne180100ERS3_, symObjAddr: 0x29990, symBinAddr: 0x10002D67C, symSize: 0x70 }
  - { offset: 0x2D3C6, size: 0x8, addend: 0x0, symName: __ZNSt3__16vectorIiNS_9allocatorIiEEE7__clearB8ne180100Ev, symObjAddr: 0x29A00, symBinAddr: 0x10002D6EC, symSize: 0x64 }
  - { offset: 0x2D3EC, size: 0x8, addend: 0x0, symName: __ZNKSt3__16vectorIiNS_9allocatorIiEEE17__annotate_deleteB8ne180100Ev, symObjAddr: 0x29A64, symBinAddr: 0x10002D750, symSize: 0x8C }
  - { offset: 0x2D412, size: 0x8, addend: 0x0, symName: __ZNSt3__116allocator_traitsINS_9allocatorIiEEE10deallocateB8ne180100ERS2_Pim, symObjAddr: 0x29AF0, symBinAddr: 0x10002D7DC, symSize: 0x34 }
  - { offset: 0x2D454, size: 0x8, addend: 0x0, symName: __ZNSt3__16vectorIiNS_9allocatorIiEEE7__allocB8ne180100Ev, symObjAddr: 0x29B24, symBinAddr: 0x10002D810, symSize: 0x28 }
  - { offset: 0x2D47A, size: 0x8, addend: 0x0, symName: __ZNKSt3__16vectorIiNS_9allocatorIiEEE8capacityB8ne180100Ev, symObjAddr: 0x29B4C, symBinAddr: 0x10002D838, symSize: 0xBC }
  - { offset: 0x2D4A0, size: 0x8, addend: 0x0, symName: __ZNSt3__16vectorIiNS_9allocatorIiEEE22__base_destruct_at_endB8ne180100EPi, symObjAddr: 0x29C08, symBinAddr: 0x10002D8F4, symSize: 0x114 }
  - { offset: 0x2D4E4, size: 0x8, addend: 0x0, symName: __ZNSt3__116allocator_traitsINS_9allocatorIiEEE7destroyB8ne180100IivEEvRS2_PT_, symObjAddr: 0x29D1C, symBinAddr: 0x10002DA08, symSize: 0x2C }
  - { offset: 0x2D521, size: 0x8, addend: 0x0, symName: __ZNSt3__19allocatorIiE7destroyB8ne180100EPi, symObjAddr: 0x29D5C, symBinAddr: 0x10002DA48, symSize: 0x14 }
  - { offset: 0x2D555, size: 0x8, addend: 0x0, symName: __ZNKSt3__16vectorIiNS_9allocatorIiEEE31__annotate_contiguous_containerB8ne180100EPKvS5_, symObjAddr: 0x29D70, symBinAddr: 0x10002DA5C, symSize: 0x8C }
  - { offset: 0x2D5B7, size: 0x8, addend: 0x0, symName: __ZNKSt3__16vectorIiNS_9allocatorIiEEE4dataB8ne180100Ev, symObjAddr: 0x29DFC, symBinAddr: 0x10002DAE8, symSize: 0x64 }
  - { offset: 0x2D5DD, size: 0x8, addend: 0x0, symName: __ZNSt3__19allocatorIiE10deallocateB8ne180100EPim, symObjAddr: 0x29E60, symBinAddr: 0x10002DB4C, symSize: 0x4C }
  - { offset: 0x2D61F, size: 0x8, addend: 0x0, symName: __ZNSt3__117__compressed_pairIPiNS_9allocatorIiEEE6secondB8ne180100Ev, symObjAddr: 0x29EAC, symBinAddr: 0x10002DB98, symSize: 0x24 }
  - { offset: 0x2D645, size: 0x8, addend: 0x0, symName: __ZNSt3__122__compressed_pair_elemINS_9allocatorIiEELi1ELb1EE5__getB8ne180100Ev, symObjAddr: 0x29ED0, symBinAddr: 0x10002DBBC, symSize: 0x14 }
  - { offset: 0x2D66B, size: 0x8, addend: 0x0, symName: __ZNKSt3__16vectorIiNS_9allocatorIiEEE9__end_capB8ne180100Ev, symObjAddr: 0x29EE4, symBinAddr: 0x10002DBD0, symSize: 0x28 }
  - { offset: 0x2D691, size: 0x8, addend: 0x0, symName: __ZNKSt3__117__compressed_pairIPiNS_9allocatorIiEEE5firstB8ne180100Ev, symObjAddr: 0x29F0C, symBinAddr: 0x10002DBF8, symSize: 0x24 }
  - { offset: 0x2D6B7, size: 0x8, addend: 0x0, symName: __ZNKSt3__122__compressed_pair_elemIPiLi0ELb0EE5__getB8ne180100Ev, symObjAddr: 0x29F30, symBinAddr: 0x10002DC1C, symSize: 0x14 }
  - { offset: 0x2D6DD, size: 0x8, addend: 0x0, symName: __ZNKSt3__16vectorI3ArcNS_9allocatorIS1_EEE11__make_iterB8ne180100EPKS1_, symObjAddr: 0x29F44, symBinAddr: 0x10002DC30, symSize: 0x1F4 }
  - { offset: 0x2D714, size: 0x8, addend: 0x0, symName: __ZNSt3__111__wrap_iterIPK3ArcEC1B8ne180100ES3_, symObjAddr: 0x2A138, symBinAddr: 0x10002DE24, symSize: 0x34 }
  - { offset: 0x2D74C, size: 0x8, addend: 0x0, symName: __ZNSt3__111__wrap_iterIPK3ArcEC2B8ne180100ES3_, symObjAddr: 0x2A16C, symBinAddr: 0x10002DE58, symSize: 0x70 }
  - { offset: 0x2D784, size: 0x8, addend: 0x0, symName: __ZNSt3__16vectorI6SommetNS_9allocatorIS1_EEEC2ERKS4_, symObjAddr: 0x2A1DC, symBinAddr: 0x10002DEC8, symSize: 0x378 }
  - { offset: 0x2D7CC, size: 0x8, addend: 0x0, symName: __ZNSt3__116allocator_traitsINS_9allocatorI6SommetEEE37select_on_container_copy_constructionB8ne180100IS3_vvEES3_RKS3_, symObjAddr: 0x2A554, symBinAddr: 0x10002E240, symSize: 0x10 }
  - { offset: 0x2D7FB, size: 0x8, addend: 0x0, symName: __ZNKSt3__16vectorI6SommetNS_9allocatorIS1_EEE7__allocB8ne180100Ev, symObjAddr: 0x2A564, symBinAddr: 0x10002E250, symSize: 0x28 }
  - { offset: 0x2D827, size: 0x8, addend: 0x0, symName: __ZNSt3__117__compressed_pairIP6SommetNS_9allocatorIS1_EEEC1B8ne180100IDnS4_EEOT_OT0_, symObjAddr: 0x2A58C, symBinAddr: 0x10002E278, symSize: 0x3C }
  - { offset: 0x2D87F, size: 0x8, addend: 0x0, symName: __ZNSt3__16vectorI6SommetNS_9allocatorIS1_EEE16__init_with_sizeB8ne180100IPS1_S6_EEvT_T0_m, symObjAddr: 0x2A5C8, symBinAddr: 0x10002E2B4, symSize: 0x380 }
  - { offset: 0x2D8FB, size: 0x8, addend: 0x0, symName: __ZNKSt3__117__compressed_pairIP6SommetNS_9allocatorIS1_EEE6secondB8ne180100Ev, symObjAddr: 0x2A948, symBinAddr: 0x10002E634, symSize: 0x24 }
  - { offset: 0x2D921, size: 0x8, addend: 0x0, symName: __ZNKSt3__122__compressed_pair_elemINS_9allocatorI6SommetEELi1ELb1EE5__getB8ne180100Ev, symObjAddr: 0x2A96C, symBinAddr: 0x10002E658, symSize: 0x14 }
  - { offset: 0x2D947, size: 0x8, addend: 0x0, symName: __ZNSt3__117__compressed_pairIP6SommetNS_9allocatorIS1_EEEC2B8ne180100IDnS4_EEOT_OT0_, symObjAddr: 0x2A980, symBinAddr: 0x10002E66C, symSize: 0x44 }
  - { offset: 0x2D99F, size: 0x8, addend: 0x0, symName: __ZNSt3__122__compressed_pair_elemIP6SommetLi0ELb0EEC2B8ne180100IDnvEEOT_, symObjAddr: 0x2A9C4, symBinAddr: 0x10002E6B0, symSize: 0x64 }
  - { offset: 0x2D9E1, size: 0x8, addend: 0x0, symName: __ZNSt3__122__compressed_pair_elemINS_9allocatorI6SommetEELi1ELb1EEC2B8ne180100IS3_vEEOT_, symObjAddr: 0x2AA28, symBinAddr: 0x10002E714, symSize: 0x18 }
  - { offset: 0x2DA23, size: 0x8, addend: 0x0, symName: __ZNSt3__16vectorI6SommetNS_9allocatorIS1_EEE16__destroy_vectorC1B8ne180100ERS4_, symObjAddr: 0x2ACA8, symBinAddr: 0x10002E994, symSize: 0x34 }
  - { offset: 0x2DA5C, size: 0x8, addend: 0x0, symName: __ZNSt3__16vectorI6SommetNS_9allocatorIS1_EEE11__vallocateB8ne180100Em, symObjAddr: 0x2ACDC, symBinAddr: 0x10002E9C8, symSize: 0x418 }
  - { offset: 0x2DAA6, size: 0x8, addend: 0x0, symName: __ZNSt3__16vectorI6SommetNS_9allocatorIS1_EEE18__construct_at_endIPS1_S6_EEvT_T0_m, symObjAddr: 0x2B0F4, symBinAddr: 0x10002EDE0, symSize: 0x3A4 }
  - { offset: 0x2DB24, size: 0x8, addend: 0x0, symName: __ZNSt3__128__exception_guard_exceptionsINS_6vectorI6SommetNS_9allocatorIS2_EEE16__destroy_vectorEE10__completeB8ne180100Ev, symObjAddr: 0x2B498, symBinAddr: 0x10002F184, symSize: 0x8C }
  - { offset: 0x2DB4A, size: 0x8, addend: 0x0, symName: __ZNSt3__128__exception_guard_exceptionsINS_6vectorI6SommetNS_9allocatorIS2_EEE16__destroy_vectorEED1B8ne180100Ev, symObjAddr: 0x2B524, symBinAddr: 0x10002F210, symSize: 0x2C }
  - { offset: 0x2DB74, size: 0x8, addend: 0x0, symName: __ZNSt3__128__exception_guard_exceptionsINS_6vectorI6SommetNS_9allocatorIS2_EEE16__destroy_vectorEEC1B8ne180100ES6_, symObjAddr: 0x2B550, symBinAddr: 0x10002F23C, symSize: 0x230 }
  - { offset: 0x2DBB1, size: 0x8, addend: 0x0, symName: __ZNSt3__128__exception_guard_exceptionsINS_6vectorI6SommetNS_9allocatorIS2_EEE16__destroy_vectorEEC2B8ne180100ES6_, symObjAddr: 0x2B780, symBinAddr: 0x10002F46C, symSize: 0x25C }
  - { offset: 0x2DBEE, size: 0x8, addend: 0x0, symName: __ZNSt3__16vectorI6SommetNS_9allocatorIS1_EEE16__destroy_vectorC2B8ne180100ERS4_, symObjAddr: 0x2B9DC, symBinAddr: 0x10002F6C8, symSize: 0x70 }
  - { offset: 0x2DC27, size: 0x8, addend: 0x0, symName: __ZNKSt3__16vectorI6SommetNS_9allocatorIS1_EEE8max_sizeEv, symObjAddr: 0x2BA4C, symBinAddr: 0x10002F738, symSize: 0x338 }
  - { offset: 0x2DC50, size: 0x8, addend: 0x0, symName: __ZNKSt3__16vectorI6SommetNS_9allocatorIS1_EEE20__throw_length_errorB8ne180100Ev, symObjAddr: 0x2BD84, symBinAddr: 0x10002FA70, symSize: 0x20 }
  - { offset: 0x2DC76, size: 0x8, addend: 0x0, symName: __ZNSt3__16vectorI6SommetNS_9allocatorIS1_EEE9__end_capB8ne180100Ev, symObjAddr: 0x2C028, symBinAddr: 0x10002FD14, symSize: 0x28 }
  - { offset: 0x2DC9C, size: 0x8, addend: 0x0, symName: __ZNKSt3__16vectorI6SommetNS_9allocatorIS1_EEE14__annotate_newB8ne180100Em, symObjAddr: 0x2C050, symBinAddr: 0x10002FD3C, symSize: 0x80 }
  - { offset: 0x2DCD1, size: 0x8, addend: 0x0, symName: __ZNSt3__116allocator_traitsINS_9allocatorI6SommetEEE8max_sizeB8ne180100IS3_vEEmRKS3_, symObjAddr: 0x2C0D0, symBinAddr: 0x10002FDBC, symSize: 0x24 }
  - { offset: 0x2DCFF, size: 0x8, addend: 0x0, symName: __ZNKSt3__19allocatorI6SommetE8max_sizeB8ne180100Ev, symObjAddr: 0x2C0F4, symBinAddr: 0x10002FDE0, symSize: 0x14 }
  - { offset: 0x2DD25, size: 0x8, addend: 0x0, symName: __ZNSt3__19allocatorI6SommetE8allocateB8ne180100Em, symObjAddr: 0x2C108, symBinAddr: 0x10002FDF4, symSize: 0x5C }
  - { offset: 0x2DD59, size: 0x8, addend: 0x0, symName: __ZNSt3__117__compressed_pairIP6SommetNS_9allocatorIS1_EEE5firstB8ne180100Ev, symObjAddr: 0x2C164, symBinAddr: 0x10002FE50, symSize: 0x24 }
  - { offset: 0x2DD7F, size: 0x8, addend: 0x0, symName: __ZNSt3__122__compressed_pair_elemIP6SommetLi0ELb0EE5__getB8ne180100Ev, symObjAddr: 0x2C188, symBinAddr: 0x10002FE74, symSize: 0x14 }
  - { offset: 0x2DDC1, size: 0x8, addend: 0x0, symName: __ZNSt3__16vectorI6SommetNS_9allocatorIS1_EEE21_ConstructTransactionC1B8ne180100ERS4_m, symObjAddr: 0x2C19C, symBinAddr: 0x10002FE88, symSize: 0x3C }
  - { offset: 0x2DE09, size: 0x8, addend: 0x0, symName: __ZNSt3__16vectorI6SommetNS_9allocatorIS1_EEE21_ConstructTransactionD1B8ne180100Ev, symObjAddr: 0x2C4AC, symBinAddr: 0x100030198, symSize: 0x2C }
  - { offset: 0x2DE33, size: 0x8, addend: 0x0, symName: __ZNSt3__16vectorI6SommetNS_9allocatorIS1_EEE21_ConstructTransactionC2B8ne180100ERS4_m, symObjAddr: 0x2C4D8, symBinAddr: 0x1000301C4, symSize: 0x1D0 }
  - { offset: 0x2DE7B, size: 0x8, addend: 0x0, symName: __ZNKSt3__16vectorI6SommetNS_9allocatorIS1_EEE19__annotate_increaseB8ne180100Em, symObjAddr: 0x2C6A8, symBinAddr: 0x100030394, symSize: 0x98 }
  - { offset: 0x2DED3, size: 0x8, addend: 0x0, symName: __ZNSt3__14pairIP6SommetS2_EC1B8ne180100IS2_S2_Li0EEEOT_OT0_, symObjAddr: 0x2CD28, symBinAddr: 0x100030A14, symSize: 0x3C }
  - { offset: 0x2DF31, size: 0x8, addend: 0x0, symName: __ZNSt3__14pairIP6SommetS2_EC2B8ne180100IS2_S2_Li0EEEOT_OT0_, symObjAddr: 0x2CD64, symBinAddr: 0x100030A50, symSize: 0x138 }
  - { offset: 0x2DF8F, size: 0x8, addend: 0x0, symName: __ZNKSt3__114__copy_trivialclB8ne180100I6SommetS2_Li0EEENS_4pairIPT_PT0_EES5_S5_S7_, symObjAddr: 0x2DAE4, symBinAddr: 0x1000317D0, symSize: 0x228 }
  - { offset: 0x2DFFB, size: 0x8, addend: 0x0, symName: __ZNSt3__14pairIP6SommetS2_EC1B8ne180100IRS2_S2_Li0EEEOT_OT0_, symObjAddr: 0x2E344, symBinAddr: 0x100032030, symSize: 0x3C }
  - { offset: 0x2E059, size: 0x8, addend: 0x0, symName: __ZNSt3__14pairIP6SommetS2_EC2B8ne180100IRS2_S2_Li0EEEOT_OT0_, symObjAddr: 0x2E380, symBinAddr: 0x10003206C, symSize: 0x138 }
  - { offset: 0x2E0B7, size: 0x8, addend: 0x0, symName: __ZNSt3__118__unwrap_iter_implIP6SommetLb1EE8__unwrapB8ne180100ES2_, symObjAddr: 0x2E4B8, symBinAddr: 0x1000321A4, symSize: 0x24 }
  - { offset: 0x2E0DA, size: 0x8, addend: 0x0, symName: __ZNSt3__118__unwrap_iter_implIP6SommetLb1EE8__rewrapB8ne180100ES2_S2_, symObjAddr: 0x2E4DC, symBinAddr: 0x1000321C8, symSize: 0x50 }
  - { offset: 0x2E10B, size: 0x8, addend: 0x0, symName: __ZNSt3__16vectorI6SommetNS_9allocatorIS1_EEE21_ConstructTransactionD2B8ne180100Ev, symObjAddr: 0x2E52C, symBinAddr: 0x100032218, symSize: 0x278 }
  - { offset: 0x2E135, size: 0x8, addend: 0x0, symName: __ZNSt3__128__exception_guard_exceptionsINS_6vectorI6SommetNS_9allocatorIS2_EEE16__destroy_vectorEED2B8ne180100Ev, symObjAddr: 0x2E7A4, symBinAddr: 0x100032490, symSize: 0xBC }
  - { offset: 0x2E15F, size: 0x8, addend: 0x0, symName: __ZNSt3__16vectorI6SommetNS_9allocatorIS1_EEE16__destroy_vectorclB8ne180100Ev, symObjAddr: 0x2E860, symBinAddr: 0x10003254C, symSize: 0x228 }
  - { offset: 0x2E185, size: 0x8, addend: 0x0, symName: __ZNKSt3__16vectorI6SommetNS_9allocatorIS1_EEE17__annotate_deleteB8ne180100Ev, symObjAddr: 0x2EA88, symBinAddr: 0x100032774, symSize: 0x8C }
  - { offset: 0x2E1AB, size: 0x8, addend: 0x0, symName: __ZNSt3__116allocator_traitsINS_9allocatorI6SommetEEE10deallocateB8ne180100ERS3_PS2_m, symObjAddr: 0x2EB14, symBinAddr: 0x100032800, symSize: 0x34 }
  - { offset: 0x2E1ED, size: 0x8, addend: 0x0, symName: __ZNSt3__19allocatorI6SommetE10deallocateB8ne180100EPS1_m, symObjAddr: 0x2EB48, symBinAddr: 0x100032834, symSize: 0x4C }
  - { offset: 0x2E22F, size: 0x8, addend: 0x0, symName: __ZNSt3__16vectorI6SommetNS_9allocatorIS1_EEEC2B8ne180100Ev, symObjAddr: 0x2EB94, symBinAddr: 0x100032880, symSize: 0x324 }
  - { offset: 0x2E25A, size: 0x8, addend: 0x0, symName: __ZNSt3__117__compressed_pairIP6SommetNS_9allocatorIS1_EEEC1B8ne180100IDnNS_18__default_init_tagEEEOT_OT0_, symObjAddr: 0x2EEB8, symBinAddr: 0x100032BA4, symSize: 0x3C }
  - { offset: 0x2E2B2, size: 0x8, addend: 0x0, symName: __ZNSt3__117__compressed_pairIP6SommetNS_9allocatorIS1_EEEC2B8ne180100IDnNS_18__default_init_tagEEEOT_OT0_, symObjAddr: 0x2EEF4, symBinAddr: 0x100032BE0, symSize: 0x40 }
  - { offset: 0x2E30A, size: 0x8, addend: 0x0, symName: __ZNSt3__122__compressed_pair_elemINS_9allocatorI6SommetEELi1ELb1EEC2B8ne180100ENS_18__default_init_tagE, symObjAddr: 0x2EF34, symBinAddr: 0x100032C20, symSize: 0x2C }
  - { offset: 0x2E33E, size: 0x8, addend: 0x0, symName: __ZNSt3__19allocatorI6SommetEC2B8ne180100Ev, symObjAddr: 0x2EF60, symBinAddr: 0x100032C4C, symSize: 0x2C }
  - { offset: 0x2E368, size: 0x8, addend: 0x0, symName: __ZNSt3__116__non_trivial_ifILb1ENS_9allocatorI6SommetEEEC2B8ne180100Ev, symObjAddr: 0x2EF8C, symBinAddr: 0x100032C78, symSize: 0x14 }
  - { offset: 0x2E392, size: 0x8, addend: 0x0, symName: __ZNSt3__16vectorI6SommetNS_9allocatorIS1_EEED2B8ne180100Ev, symObjAddr: 0x2EFA0, symBinAddr: 0x100032C8C, symSize: 0x22C }
  - { offset: 0x2E3C3, size: 0x8, addend: 0x0, symName: __ZNSt3__16vectorI6SommetNS_9allocatorIS1_EEE22__construct_one_at_endB8ne180100IJS1_EEEvDpOT_, symObjAddr: 0x2F1CC, symBinAddr: 0x100032EB8, symSize: 0x390 }
  - { offset: 0x2E418, size: 0x8, addend: 0x0, symName: __ZNSt3__16vectorI6SommetNS_9allocatorIS1_EEE21__push_back_slow_pathIS1_EEPS1_OT_, symObjAddr: 0x2F55C, symBinAddr: 0x100033248, symSize: 0x42C }
  - { offset: 0x2E47D, size: 0x8, addend: 0x0, symName: __ZNSt3__116allocator_traitsINS_9allocatorI6SommetEEE9constructB8ne180100IS2_JS2_EvEEvRS3_PT_DpOT0_, symObjAddr: 0x2F988, symBinAddr: 0x100033674, symSize: 0x34 }
  - { offset: 0x2E4D4, size: 0x8, addend: 0x0, symName: __ZNSt3__19allocatorI6SommetE9constructB8ne180100IS1_JS1_EEEvPT_DpOT0_, symObjAddr: 0x2F9BC, symBinAddr: 0x1000336A8, symSize: 0x34 }
  - { offset: 0x2E52A, size: 0x8, addend: 0x0, symName: __ZNKSt3__16vectorI6SommetNS_9allocatorIS1_EEE11__recommendB8ne180100Em, symObjAddr: 0x2F9F0, symBinAddr: 0x1000336DC, symSize: 0x374 }
  - { offset: 0x2E586, size: 0x8, addend: 0x0, symName: __ZNSt3__114__split_bufferI6SommetRNS_9allocatorIS1_EEEC1EmmS4_, symObjAddr: 0x2FD64, symBinAddr: 0x100033A50, symSize: 0x44 }
  - { offset: 0x2E5DC, size: 0x8, addend: 0x0, symName: __ZNSt3__114__split_bufferI6SommetRNS_9allocatorIS1_EEED1Ev, symObjAddr: 0x3030C, symBinAddr: 0x100033FF8, symSize: 0x2C }
  - { offset: 0x2E608, size: 0x8, addend: 0x0, symName: __ZNSt3__114__split_bufferI6SommetRNS_9allocatorIS1_EEEC2EmmS4_, symObjAddr: 0x30338, symBinAddr: 0x100034024, symSize: 0x510 }
  - { offset: 0x2E683, size: 0x8, addend: 0x0, symName: __ZNSt3__117__compressed_pairIP6SommetRNS_9allocatorIS1_EEEC1B8ne180100IDnS5_EEOT_OT0_, symObjAddr: 0x30848, symBinAddr: 0x100034534, symSize: 0x3C }
  - { offset: 0x2E6DB, size: 0x8, addend: 0x0, symName: __ZNSt3__114__split_bufferI6SommetRNS_9allocatorIS1_EEE7__allocB8ne180100Ev, symObjAddr: 0x30884, symBinAddr: 0x100034570, symSize: 0x28 }
  - { offset: 0x2E701, size: 0x8, addend: 0x0, symName: __ZNSt3__114__split_bufferI6SommetRNS_9allocatorIS1_EEE9__end_capB8ne180100Ev, symObjAddr: 0x308AC, symBinAddr: 0x100034598, symSize: 0x28 }
  - { offset: 0x2E727, size: 0x8, addend: 0x0, symName: __ZNSt3__117__compressed_pairIP6SommetRNS_9allocatorIS1_EEEC2B8ne180100IDnS5_EEOT_OT0_, symObjAddr: 0x308D4, symBinAddr: 0x1000345C0, symSize: 0x48 }
  - { offset: 0x2E77F, size: 0x8, addend: 0x0, symName: __ZNSt3__122__compressed_pair_elemIRNS_9allocatorI6SommetEELi1ELb0EEC2B8ne180100IS4_vEEOT_, symObjAddr: 0x3091C, symBinAddr: 0x100034608, symSize: 0x70 }
  - { offset: 0x2E7C1, size: 0x8, addend: 0x0, symName: __ZNSt3__117__compressed_pairIP6SommetRNS_9allocatorIS1_EEE6secondB8ne180100Ev, symObjAddr: 0x3098C, symBinAddr: 0x100034678, symSize: 0x28 }
  - { offset: 0x2E7E7, size: 0x8, addend: 0x0, symName: __ZNSt3__122__compressed_pair_elemIRNS_9allocatorI6SommetEELi1ELb0EE5__getB8ne180100Ev, symObjAddr: 0x309B4, symBinAddr: 0x1000346A0, symSize: 0x60 }
  - { offset: 0x2E80D, size: 0x8, addend: 0x0, symName: __ZNSt3__117__compressed_pairIP6SommetRNS_9allocatorIS1_EEE5firstB8ne180100Ev, symObjAddr: 0x30A14, symBinAddr: 0x100034700, symSize: 0x24 }
  - { offset: 0x2E833, size: 0x8, addend: 0x0, symName: __ZNSt3__116reverse_iteratorIP6SommetEC1B8ne180100ES2_, symObjAddr: 0x30ED8, symBinAddr: 0x100034BC4, symSize: 0x34 }
  - { offset: 0x2E86B, size: 0x8, addend: 0x0, symName: __ZNKSt3__116reverse_iteratorIP6SommetE4baseB8ne180100Ev, symObjAddr: 0x30F0C, symBinAddr: 0x100034BF8, symSize: 0x64 }
  - { offset: 0x2E8AE, size: 0x8, addend: 0x0, symName: __ZNKSt3__111__move_loopINS_17_ClassicAlgPolicyEEclB8ne180100INS_16reverse_iteratorIP6SommetEES7_S7_EENS_4pairIT_T1_EES9_T0_SA_, symObjAddr: 0x32A4C, symBinAddr: 0x100036738, symSize: 0x334 }
  - { offset: 0x2E92C, size: 0x8, addend: 0x0, symName: __ZNSt3__18_IterOpsINS_17_ClassicAlgPolicyEE11__iter_moveB8ne180100IRNS_16reverse_iteratorIP6SommetEELi0EEEDTclsr3stdE4movedeclsr3stdE7declvalIRT_EEEEOS9_, symObjAddr: 0x338E0, symBinAddr: 0x1000375CC, symSize: 0x28 }
  - { offset: 0x2E95E, size: 0x8, addend: 0x0, symName: __ZNKSt3__116reverse_iteratorIP6SommetEdeB8ne180100Ev, symObjAddr: 0x33908, symBinAddr: 0x1000375F4, symSize: 0x74 }
  - { offset: 0x2E992, size: 0x8, addend: 0x0, symName: __ZNSt3__116reverse_iteratorIP6SommetEppB8ne180100Ev, symObjAddr: 0x3397C, symBinAddr: 0x100037668, symSize: 0x6C }
  - { offset: 0x2E9B8, size: 0x8, addend: 0x0, symName: __ZNSt3__18_IterOpsINS_17_ClassicAlgPolicyEE25__validate_iter_referenceB8ne180100IRNS_16reverse_iteratorIP6SommetEEEEvv, symObjAddr: 0x339E8, symBinAddr: 0x1000376D4, symSize: 0x4 }
  - { offset: 0x2E9D6, size: 0x8, addend: 0x0, symName: __ZNSt3__118__unwrap_iter_implINS_16reverse_iteratorIP6SommetEELb0EE8__unwrapB8ne180100ES4_, symObjAddr: 0x339EC, symBinAddr: 0x1000376D8, symSize: 0x264 }
  - { offset: 0x2EA03, size: 0x8, addend: 0x0, symName: __ZNSt3__14pairINS_16reverse_iteratorIP6SommetEES4_EC1B8ne180100IS4_S4_Li0EEEOT_OT0_, symObjAddr: 0x33C50, symBinAddr: 0x10003793C, symSize: 0x3C }
  - { offset: 0x2EA61, size: 0x8, addend: 0x0, symName: __ZNSt3__14pairINS_16reverse_iteratorIP6SommetEES4_EC2B8ne180100IS4_S4_Li0EEEOT_OT0_, symObjAddr: 0x33C8C, symBinAddr: 0x100037978, symSize: 0x54 }
  - { offset: 0x2EABF, size: 0x8, addend: 0x0, symName: __ZNSt3__118__unwrap_iter_implINS_16reverse_iteratorIP6SommetEELb0EE8__rewrapB8ne180100ES4_S4_, symObjAddr: 0x33CE0, symBinAddr: 0x1000379CC, symSize: 0x2D0 }
  - { offset: 0x2EAF4, size: 0x8, addend: 0x0, symName: __ZNSt3__116reverse_iteratorIP6SommetEC2B8ne180100ES2_, symObjAddr: 0x33FB0, symBinAddr: 0x100037C9C, symSize: 0xB8 }
  - { offset: 0x2EB2C, size: 0x8, addend: 0x0, symName: __ZNSt3__114__split_bufferI6SommetRNS_9allocatorIS1_EEED2Ev, symObjAddr: 0x34068, symBinAddr: 0x100037D54, symSize: 0x104 }
  - { offset: 0x2EB58, size: 0x8, addend: 0x0, symName: __ZNSt3__114__split_bufferI6SommetRNS_9allocatorIS1_EEE5clearB8ne180100Ev, symObjAddr: 0x3416C, symBinAddr: 0x100037E58, symSize: 0x68 }
  - { offset: 0x2EB7E, size: 0x8, addend: 0x0, symName: __ZNKSt3__114__split_bufferI6SommetRNS_9allocatorIS1_EEE8capacityB8ne180100Ev, symObjAddr: 0x341D4, symBinAddr: 0x100037EC0, symSize: 0xBC }
  - { offset: 0x2EBA4, size: 0x8, addend: 0x0, symName: __ZNSt3__114__split_bufferI6SommetRNS_9allocatorIS1_EEE17__destruct_at_endB8ne180100EPS1_, symObjAddr: 0x34290, symBinAddr: 0x100037F7C, symSize: 0x2C }
  - { offset: 0x2EBD8, size: 0x8, addend: 0x0, symName: __ZNSt3__114__split_bufferI6SommetRNS_9allocatorIS1_EEE17__destruct_at_endB8ne180100EPS1_NS_17integral_constantIbLb0EEE, symObjAddr: 0x342BC, symBinAddr: 0x100037FA8, symSize: 0x10C }
  - { offset: 0x2EC18, size: 0x8, addend: 0x0, symName: __ZNKSt3__114__split_bufferI6SommetRNS_9allocatorIS1_EEE9__end_capB8ne180100Ev, symObjAddr: 0x343C8, symBinAddr: 0x1000380B4, symSize: 0x28 }
  - { offset: 0x2EC3E, size: 0x8, addend: 0x0, symName: __ZNKSt3__117__compressed_pairIP6SommetRNS_9allocatorIS1_EEE5firstB8ne180100Ev, symObjAddr: 0x343F0, symBinAddr: 0x1000380DC, symSize: 0x24 }
  - { offset: 0x2EC64, size: 0x8, addend: 0x0, symName: __ZNSt3__16vectorI6SommetNS_9allocatorIS1_EEEC2Em, symObjAddr: 0x34414, symBinAddr: 0x100038100, symSize: 0x4C4 }
  - { offset: 0x2ECBA, size: 0x8, addend: 0x0, symName: __ZNSt3__16vectorI6SommetNS_9allocatorIS1_EEE18__construct_at_endEm, symObjAddr: 0x348D8, symBinAddr: 0x1000385C4, symSize: 0x40C }
  - { offset: 0x2ED34, size: 0x8, addend: 0x0, symName: __ZNSt3__116allocator_traitsINS_9allocatorI6SommetEEE9constructB8ne180100IS2_JEvEEvRS3_PT_DpOT0_, symObjAddr: 0x34CE4, symBinAddr: 0x1000389D0, symSize: 0x2C }
  - { offset: 0x2ED76, size: 0x8, addend: 0x0, symName: __ZNSt3__19allocatorI6SommetE9constructB8ne180100IS1_JEEEvPT_DpOT0_, symObjAddr: 0x34D10, symBinAddr: 0x1000389FC, symSize: 0x30 }
  - { offset: 0x2EDB8, size: 0x8, addend: 0x0, symName: __ZNSt3__16vectorIiNS_9allocatorIiEEEC2Em, symObjAddr: 0x34D40, symBinAddr: 0x100038A2C, symSize: 0x4C4 }
  - { offset: 0x2EE0E, size: 0x8, addend: 0x0, symName: __ZNSt3__117__compressed_pairIPiNS_9allocatorIiEEEC1B8ne180100IDnNS_18__default_init_tagEEEOT_OT0_, symObjAddr: 0x35204, symBinAddr: 0x100038EF0, symSize: 0x3C }
  - { offset: 0x2EE66, size: 0x8, addend: 0x0, symName: __ZNSt3__16vectorIiNS_9allocatorIiEEE11__vallocateB8ne180100Em, symObjAddr: 0x354A8, symBinAddr: 0x100039194, symSize: 0x418 }
  - { offset: 0x2EEB0, size: 0x8, addend: 0x0, symName: __ZNSt3__16vectorIiNS_9allocatorIiEEE18__construct_at_endEm, symObjAddr: 0x358C0, symBinAddr: 0x1000395AC, symSize: 0x40C }
  - { offset: 0x2EF2A, size: 0x8, addend: 0x0, symName: __ZNSt3__128__exception_guard_exceptionsINS_6vectorIiNS_9allocatorIiEEE16__destroy_vectorEE10__completeB8ne180100Ev, symObjAddr: 0x35CCC, symBinAddr: 0x1000399B8, symSize: 0x8C }
  - { offset: 0x2EF50, size: 0x8, addend: 0x0, symName: __ZNSt3__128__exception_guard_exceptionsINS_6vectorIiNS_9allocatorIiEEE16__destroy_vectorEED1B8ne180100Ev, symObjAddr: 0x35D58, symBinAddr: 0x100039A44, symSize: 0x2C }
  - { offset: 0x2EF7A, size: 0x8, addend: 0x0, symName: __ZNSt3__117__compressed_pairIPiNS_9allocatorIiEEEC2B8ne180100IDnNS_18__default_init_tagEEEOT_OT0_, symObjAddr: 0x35D84, symBinAddr: 0x100039A70, symSize: 0x40 }
  - { offset: 0x2EFD2, size: 0x8, addend: 0x0, symName: __ZNSt3__122__compressed_pair_elemIPiLi0ELb0EEC2B8ne180100IDnvEEOT_, symObjAddr: 0x35DC4, symBinAddr: 0x100039AB0, symSize: 0x64 }
  - { offset: 0x2F014, size: 0x8, addend: 0x0, symName: __ZNSt3__122__compressed_pair_elemINS_9allocatorIiEELi1ELb1EEC2B8ne180100ENS_18__default_init_tagE, symObjAddr: 0x35E28, symBinAddr: 0x100039B14, symSize: 0x2C }
  - { offset: 0x2F048, size: 0x8, addend: 0x0, symName: __ZNSt3__19allocatorIiEC2B8ne180100Ev, symObjAddr: 0x35E54, symBinAddr: 0x100039B40, symSize: 0x2C }
  - { offset: 0x2F072, size: 0x8, addend: 0x0, symName: __ZNSt3__116__non_trivial_ifILb1ENS_9allocatorIiEEEC2B8ne180100Ev, symObjAddr: 0x35E80, symBinAddr: 0x100039B6C, symSize: 0x14 }
  - { offset: 0x2F09C, size: 0x8, addend: 0x0, symName: __ZNSt3__128__exception_guard_exceptionsINS_6vectorIiNS_9allocatorIiEEE16__destroy_vectorEEC1B8ne180100ES5_, symObjAddr: 0x35E94, symBinAddr: 0x100039B80, symSize: 0x230 }
  - { offset: 0x2F0D9, size: 0x8, addend: 0x0, symName: __ZNSt3__128__exception_guard_exceptionsINS_6vectorIiNS_9allocatorIiEEE16__destroy_vectorEEC2B8ne180100ES5_, symObjAddr: 0x360C4, symBinAddr: 0x100039DB0, symSize: 0x25C }
  - { offset: 0x2F116, size: 0x8, addend: 0x0, symName: __ZNKSt3__16vectorIiNS_9allocatorIiEEE8max_sizeEv, symObjAddr: 0x36320, symBinAddr: 0x10003A00C, symSize: 0x338 }
  - { offset: 0x2F13F, size: 0x8, addend: 0x0, symName: __ZNKSt3__16vectorIiNS_9allocatorIiEEE20__throw_length_errorB8ne180100Ev, symObjAddr: 0x36658, symBinAddr: 0x10003A344, symSize: 0x20 }
  - { offset: 0x2F165, size: 0x8, addend: 0x0, symName: __ZNSt3__16vectorIiNS_9allocatorIiEEE9__end_capB8ne180100Ev, symObjAddr: 0x368FC, symBinAddr: 0x10003A5E8, symSize: 0x28 }
  - { offset: 0x2F18B, size: 0x8, addend: 0x0, symName: __ZNKSt3__16vectorIiNS_9allocatorIiEEE14__annotate_newB8ne180100Em, symObjAddr: 0x36924, symBinAddr: 0x10003A610, symSize: 0x80 }
  - { offset: 0x2F1CB, size: 0x8, addend: 0x0, symName: __ZNSt3__116allocator_traitsINS_9allocatorIiEEE8max_sizeB8ne180100IS2_vEEmRKS2_, symObjAddr: 0x369A4, symBinAddr: 0x10003A690, symSize: 0x24 }
  - { offset: 0x2F1F9, size: 0x8, addend: 0x0, symName: __ZNKSt3__16vectorIiNS_9allocatorIiEEE7__allocB8ne180100Ev, symObjAddr: 0x369C8, symBinAddr: 0x10003A6B4, symSize: 0x28 }
  - { offset: 0x2F21F, size: 0x8, addend: 0x0, symName: __ZNKSt3__19allocatorIiE8max_sizeB8ne180100Ev, symObjAddr: 0x369F0, symBinAddr: 0x10003A6DC, symSize: 0x14 }
  - { offset: 0x2F245, size: 0x8, addend: 0x0, symName: __ZNKSt3__117__compressed_pairIPiNS_9allocatorIiEEE6secondB8ne180100Ev, symObjAddr: 0x36A04, symBinAddr: 0x10003A6F0, symSize: 0x24 }
  - { offset: 0x2F26B, size: 0x8, addend: 0x0, symName: __ZNKSt3__122__compressed_pair_elemINS_9allocatorIiEELi1ELb1EE5__getB8ne180100Ev, symObjAddr: 0x36A28, symBinAddr: 0x10003A714, symSize: 0x14 }
  - { offset: 0x2F291, size: 0x8, addend: 0x0, symName: __ZNSt3__19allocatorIiE8allocateB8ne180100Em, symObjAddr: 0x36A3C, symBinAddr: 0x10003A728, symSize: 0x5C }
  - { offset: 0x2F2C5, size: 0x8, addend: 0x0, symName: __ZNSt3__117__compressed_pairIPiNS_9allocatorIiEEE5firstB8ne180100Ev, symObjAddr: 0x36A98, symBinAddr: 0x10003A784, symSize: 0x24 }
  - { offset: 0x2F2EB, size: 0x8, addend: 0x0, symName: __ZNSt3__122__compressed_pair_elemIPiLi0ELb0EE5__getB8ne180100Ev, symObjAddr: 0x36ABC, symBinAddr: 0x10003A7A8, symSize: 0x14 }
  - { offset: 0x2F32D, size: 0x8, addend: 0x0, symName: __ZNSt3__16vectorIiNS_9allocatorIiEEE21_ConstructTransactionC1B8ne180100ERS3_m, symObjAddr: 0x36AD0, symBinAddr: 0x10003A7BC, symSize: 0x3C }
  - { offset: 0x2F375, size: 0x8, addend: 0x0, symName: __ZNSt3__116allocator_traitsINS_9allocatorIiEEE9constructB8ne180100IiJEvEEvRS2_PT_DpOT0_, symObjAddr: 0x36B0C, symBinAddr: 0x10003A7F8, symSize: 0x2C }
  - { offset: 0x2F3B7, size: 0x8, addend: 0x0, symName: __ZNSt3__16vectorIiNS_9allocatorIiEEE21_ConstructTransactionD1B8ne180100Ev, symObjAddr: 0x36B38, symBinAddr: 0x10003A824, symSize: 0x2C }
  - { offset: 0x2F3E1, size: 0x8, addend: 0x0, symName: __ZNSt3__16vectorIiNS_9allocatorIiEEE21_ConstructTransactionC2B8ne180100ERS3_m, symObjAddr: 0x36B64, symBinAddr: 0x10003A850, symSize: 0x1D0 }
  - { offset: 0x2F429, size: 0x8, addend: 0x0, symName: __ZNKSt3__16vectorIiNS_9allocatorIiEEE19__annotate_increaseB8ne180100Em, symObjAddr: 0x36D34, symBinAddr: 0x10003AA20, symSize: 0x98 }
  - { offset: 0x2F45E, size: 0x8, addend: 0x0, symName: __ZNSt3__19allocatorIiE9constructB8ne180100IiJEEEvPT_DpOT0_, symObjAddr: 0x36DCC, symBinAddr: 0x10003AAB8, symSize: 0x8C }
  - { offset: 0x2F4A0, size: 0x8, addend: 0x0, symName: __ZNSt3__16vectorIiNS_9allocatorIiEEE21_ConstructTransactionD2B8ne180100Ev, symObjAddr: 0x36E58, symBinAddr: 0x10003AB44, symSize: 0x278 }
  - { offset: 0x2F4CA, size: 0x8, addend: 0x0, symName: __ZNKSt3__16vectorIiNS_9allocatorIiEEE17__annotate_shrinkB8ne180100Em, symObjAddr: 0x370D0, symBinAddr: 0x10003ADBC, symSize: 0x88 }
  - { offset: 0x2F4FF, size: 0x8, addend: 0x0, symName: __ZNSt3__128__exception_guard_exceptionsINS_6vectorIiNS_9allocatorIiEEE16__destroy_vectorEED2B8ne180100Ev, symObjAddr: 0x37158, symBinAddr: 0x10003AE44, symSize: 0xA8 }
  - { offset: 0x2F529, size: 0x8, addend: 0x0, symName: __ZNKSt3__16vectorI6SommetNS_9allocatorIS1_EEE11__make_iterB8ne180100EPKS1_, symObjAddr: 0x37200, symBinAddr: 0x10003AEEC, symSize: 0x1F4 }
  - { offset: 0x2F560, size: 0x8, addend: 0x0, symName: __ZNSt3__111__wrap_iterIPK6SommetEC1B8ne180100ES3_, symObjAddr: 0x373F4, symBinAddr: 0x10003B0E0, symSize: 0x34 }
  - { offset: 0x2F598, size: 0x8, addend: 0x0, symName: __ZNSt3__111__wrap_iterIPK6SommetEC2B8ne180100ES3_, symObjAddr: 0x37428, symBinAddr: 0x10003B114, symSize: 0x70 }
  - { offset: 0x2F5D0, size: 0x8, addend: 0x0, symName: __ZNSt3__16vectorIiNS_9allocatorIiEEEC2ERKS3_, symObjAddr: 0x37498, symBinAddr: 0x10003B184, symSize: 0x378 }
  - { offset: 0x2F60D, size: 0x8, addend: 0x0, symName: __ZNSt3__116allocator_traitsINS_9allocatorIiEEE37select_on_container_copy_constructionB8ne180100IS2_vvEES2_RKS2_, symObjAddr: 0x37810, symBinAddr: 0x10003B4FC, symSize: 0x10 }
  - { offset: 0x2F642, size: 0x8, addend: 0x0, symName: __ZNSt3__117__compressed_pairIPiNS_9allocatorIiEEEC1B8ne180100IDnS3_EEOT_OT0_, symObjAddr: 0x37820, symBinAddr: 0x10003B50C, symSize: 0x3C }
  - { offset: 0x2F69A, size: 0x8, addend: 0x0, symName: __ZNSt3__16vectorIiNS_9allocatorIiEEE16__init_with_sizeB8ne180100IPiS5_EEvT_T0_m, symObjAddr: 0x3785C, symBinAddr: 0x10003B548, symSize: 0x380 }
  - { offset: 0x2F716, size: 0x8, addend: 0x0, symName: __ZNSt3__117__compressed_pairIPiNS_9allocatorIiEEEC2B8ne180100IDnS3_EEOT_OT0_, symObjAddr: 0x37BDC, symBinAddr: 0x10003B8C8, symSize: 0x44 }
  - { offset: 0x2F76E, size: 0x8, addend: 0x0, symName: __ZNSt3__122__compressed_pair_elemINS_9allocatorIiEELi1ELb1EEC2B8ne180100IS2_vEEOT_, symObjAddr: 0x37C20, symBinAddr: 0x10003B90C, symSize: 0x18 }
  - { offset: 0x2F7B0, size: 0x8, addend: 0x0, symName: __ZNSt3__16vectorIiNS_9allocatorIiEEE18__construct_at_endIPiS5_EEvT_T0_m, symObjAddr: 0x37C38, symBinAddr: 0x10003B924, symSize: 0x3A4 }
  - { offset: 0x2F851, size: 0x8, addend: 0x0, symName: __ZNSt3__14pairIPiS1_EC1B8ne180100IS1_S1_Li0EEEOT_OT0_, symObjAddr: 0x38898, symBinAddr: 0x10003C584, symSize: 0x3C }
  - { offset: 0x2F8AF, size: 0x8, addend: 0x0, symName: __ZNSt3__14pairIPiS1_EC2B8ne180100IS1_S1_Li0EEEOT_OT0_, symObjAddr: 0x388D4, symBinAddr: 0x10003C5C0, symSize: 0x138 }
  - { offset: 0x2F90D, size: 0x8, addend: 0x0, symName: __ZNKSt3__114__copy_trivialclB8ne180100IiiLi0EEENS_4pairIPT_PT0_EES4_S4_S6_, symObjAddr: 0x39654, symBinAddr: 0x10003D340, symSize: 0x228 }
  - { offset: 0x2F979, size: 0x8, addend: 0x0, symName: __ZNSt3__14pairIPiS1_EC1B8ne180100IRS1_S1_Li0EEEOT_OT0_, symObjAddr: 0x39EB4, symBinAddr: 0x10003DBA0, symSize: 0x3C }
  - { offset: 0x2F9D7, size: 0x8, addend: 0x0, symName: __ZNSt3__14pairIPiS1_EC2B8ne180100IRS1_S1_Li0EEEOT_OT0_, symObjAddr: 0x39EF0, symBinAddr: 0x10003DBDC, symSize: 0x138 }
  - { offset: 0x2FA35, size: 0x8, addend: 0x0, symName: __ZNSt3__118__unwrap_iter_implIPiLb1EE8__unwrapB8ne180100ES1_, symObjAddr: 0x3A028, symBinAddr: 0x10003DD14, symSize: 0x24 }
  - { offset: 0x2FA58, size: 0x8, addend: 0x0, symName: __ZNSt3__118__unwrap_iter_implIPiLb1EE8__rewrapB8ne180100ES1_S1_, symObjAddr: 0x3A04C, symBinAddr: 0x10003DD38, symSize: 0x50 }
  - { offset: 0x2FA89, size: 0x8, addend: 0x0, symName: __ZNSt3__16vectorIdNS_9allocatorIdEEEC2EmRKd, symObjAddr: 0x3A09C, symBinAddr: 0x10003DD88, symSize: 0x4CC }
  - { offset: 0x2FAEF, size: 0x8, addend: 0x0, symName: __ZNSt3__117__compressed_pairIPdNS_9allocatorIdEEEC1B8ne180100IDnNS_18__default_init_tagEEEOT_OT0_, symObjAddr: 0x3A568, symBinAddr: 0x10003E254, symSize: 0x3C }
  - { offset: 0x2FB47, size: 0x8, addend: 0x0, symName: __ZNSt3__16vectorIdNS_9allocatorIdEEE18__construct_at_endEmRKd, symObjAddr: 0x3A5A4, symBinAddr: 0x10003E290, symSize: 0x414 }
  - { offset: 0x2FBD1, size: 0x8, addend: 0x0, symName: __ZNSt3__117__compressed_pairIPdNS_9allocatorIdEEEC2B8ne180100IDnNS_18__default_init_tagEEEOT_OT0_, symObjAddr: 0x3A9B8, symBinAddr: 0x10003E6A4, symSize: 0x40 }
  - { offset: 0x2FC29, size: 0x8, addend: 0x0, symName: __ZNSt3__122__compressed_pair_elemINS_9allocatorIdEELi1ELb1EEC2B8ne180100ENS_18__default_init_tagE, symObjAddr: 0x3A9F8, symBinAddr: 0x10003E6E4, symSize: 0x2C }
  - { offset: 0x2FC5D, size: 0x8, addend: 0x0, symName: __ZNSt3__19allocatorIdEC2B8ne180100Ev, symObjAddr: 0x3AA24, symBinAddr: 0x10003E710, symSize: 0x2C }
  - { offset: 0x2FC87, size: 0x8, addend: 0x0, symName: __ZNSt3__116__non_trivial_ifILb1ENS_9allocatorIdEEEC2B8ne180100Ev, symObjAddr: 0x3AA50, symBinAddr: 0x10003E73C, symSize: 0x14 }
  - { offset: 0x2FCB1, size: 0x8, addend: 0x0, symName: __ZNSt3__116allocator_traitsINS_9allocatorIdEEE9constructB8ne180100IdJRKdEvEEvRS2_PT_DpOT0_, symObjAddr: 0x3AA64, symBinAddr: 0x10003E750, symSize: 0x34 }
  - { offset: 0x2FD08, size: 0x8, addend: 0x0, symName: __ZNSt3__19allocatorIdE9constructB8ne180100IdJRKdEEEvPT_DpOT0_, symObjAddr: 0x3AA98, symBinAddr: 0x10003E784, symSize: 0xB4 }
  - { offset: 0x2FD5E, size: 0x8, addend: 0x0, symName: __ZNSt3__16vectorIdNS_9allocatorIdEEED2B8ne180100Ev, symObjAddr: 0x3AB4C, symBinAddr: 0x10003E838, symSize: 0x22C }
  - { offset: 0x2FD89, size: 0x8, addend: 0x0, symName: __ZNSt3__16vectorINS0_IdNS_9allocatorIdEEEENS1_IS3_EEEC2EmRKS3_, symObjAddr: 0x3AD78, symBinAddr: 0x10003EA64, symSize: 0x4CC }
  - { offset: 0x2FDEF, size: 0x8, addend: 0x0, symName: __ZNSt3__117__compressed_pairIPNS_6vectorIdNS_9allocatorIdEEEENS2_IS4_EEEC1B8ne180100IDnNS_18__default_init_tagEEEOT_OT0_, symObjAddr: 0x3B244, symBinAddr: 0x10003EF30, symSize: 0x3C }
  - { offset: 0x2FE47, size: 0x8, addend: 0x0, symName: __ZNSt3__16vectorINS0_IdNS_9allocatorIdEEEENS1_IS3_EEE16__destroy_vectorC1B8ne180100ERS5_, symObjAddr: 0x3B4E8, symBinAddr: 0x10003F1D4, symSize: 0x34 }
  - { offset: 0x2FE80, size: 0x8, addend: 0x0, symName: __ZNSt3__16vectorINS0_IdNS_9allocatorIdEEEENS1_IS3_EEE11__vallocateB8ne180100Em, symObjAddr: 0x3B51C, symBinAddr: 0x10003F208, symSize: 0x420 }
  - { offset: 0x2FECA, size: 0x8, addend: 0x0, symName: __ZNSt3__16vectorINS0_IdNS_9allocatorIdEEEENS1_IS3_EEE18__construct_at_endEmRKS3_, symObjAddr: 0x3B93C, symBinAddr: 0x10003F628, symSize: 0x414 }
  - { offset: 0x2FF54, size: 0x8, addend: 0x0, symName: __ZNSt3__128__exception_guard_exceptionsINS_6vectorINS1_IdNS_9allocatorIdEEEENS2_IS4_EEE16__destroy_vectorEE10__completeB8ne180100Ev, symObjAddr: 0x3BD50, symBinAddr: 0x10003FA3C, symSize: 0x8C }
  - { offset: 0x2FF7A, size: 0x8, addend: 0x0, symName: __ZNSt3__128__exception_guard_exceptionsINS_6vectorINS1_IdNS_9allocatorIdEEEENS2_IS4_EEE16__destroy_vectorEED1B8ne180100Ev, symObjAddr: 0x3BDDC, symBinAddr: 0x10003FAC8, symSize: 0x2C }
  - { offset: 0x2FFA4, size: 0x8, addend: 0x0, symName: __ZNSt3__117__compressed_pairIPNS_6vectorIdNS_9allocatorIdEEEENS2_IS4_EEEC2B8ne180100IDnNS_18__default_init_tagEEEOT_OT0_, symObjAddr: 0x3BE08, symBinAddr: 0x10003FAF4, symSize: 0x40 }
  - { offset: 0x2FFFC, size: 0x8, addend: 0x0, symName: __ZNSt3__122__compressed_pair_elemIPNS_6vectorIdNS_9allocatorIdEEEELi0ELb0EEC2B8ne180100IDnvEEOT_, symObjAddr: 0x3BE48, symBinAddr: 0x10003FB34, symSize: 0x64 }
  - { offset: 0x3003E, size: 0x8, addend: 0x0, symName: __ZNSt3__122__compressed_pair_elemINS_9allocatorINS_6vectorIdNS1_IdEEEEEELi1ELb1EEC2B8ne180100ENS_18__default_init_tagE, symObjAddr: 0x3BEAC, symBinAddr: 0x10003FB98, symSize: 0x2C }
  - { offset: 0x30072, size: 0x8, addend: 0x0, symName: __ZNSt3__19allocatorINS_6vectorIdNS0_IdEEEEEC2B8ne180100Ev, symObjAddr: 0x3BED8, symBinAddr: 0x10003FBC4, symSize: 0x2C }
  - { offset: 0x3009C, size: 0x8, addend: 0x0, symName: __ZNSt3__116__non_trivial_ifILb1ENS_9allocatorINS_6vectorIdNS1_IdEEEEEEEC2B8ne180100Ev, symObjAddr: 0x3BF04, symBinAddr: 0x10003FBF0, symSize: 0x14 }
  - { offset: 0x300C6, size: 0x8, addend: 0x0, symName: __ZNSt3__128__exception_guard_exceptionsINS_6vectorINS1_IdNS_9allocatorIdEEEENS2_IS4_EEE16__destroy_vectorEEC1B8ne180100ES7_, symObjAddr: 0x3BF18, symBinAddr: 0x10003FC04, symSize: 0x230 }
  - { offset: 0x30103, size: 0x8, addend: 0x0, symName: __ZNSt3__128__exception_guard_exceptionsINS_6vectorINS1_IdNS_9allocatorIdEEEENS2_IS4_EEE16__destroy_vectorEEC2B8ne180100ES7_, symObjAddr: 0x3C148, symBinAddr: 0x10003FE34, symSize: 0x25C }
  - { offset: 0x30140, size: 0x8, addend: 0x0, symName: __ZNSt3__16vectorINS0_IdNS_9allocatorIdEEEENS1_IS3_EEE16__destroy_vectorC2B8ne180100ERS5_, symObjAddr: 0x3C3A4, symBinAddr: 0x100040090, symSize: 0x70 }
  - { offset: 0x30179, size: 0x8, addend: 0x0, symName: __ZNKSt3__16vectorINS0_IdNS_9allocatorIdEEEENS1_IS3_EEE8max_sizeEv, symObjAddr: 0x3C414, symBinAddr: 0x100040100, symSize: 0x338 }
  - { offset: 0x301A2, size: 0x8, addend: 0x0, symName: __ZNKSt3__16vectorINS0_IdNS_9allocatorIdEEEENS1_IS3_EEE20__throw_length_errorB8ne180100Ev, symObjAddr: 0x3C74C, symBinAddr: 0x100040438, symSize: 0x20 }
  - { offset: 0x301C8, size: 0x8, addend: 0x0, symName: __ZNSt3__16vectorINS0_IdNS_9allocatorIdEEEENS1_IS3_EEE7__allocB8ne180100Ev, symObjAddr: 0x3C9F0, symBinAddr: 0x1000406DC, symSize: 0x28 }
  - { offset: 0x301EE, size: 0x8, addend: 0x0, symName: __ZNSt3__16vectorINS0_IdNS_9allocatorIdEEEENS1_IS3_EEE9__end_capB8ne180100Ev, symObjAddr: 0x3CA18, symBinAddr: 0x100040704, symSize: 0x28 }
  - { offset: 0x30214, size: 0x8, addend: 0x0, symName: __ZNKSt3__16vectorINS0_IdNS_9allocatorIdEEEENS1_IS3_EEE14__annotate_newB8ne180100Em, symObjAddr: 0x3CA40, symBinAddr: 0x10004072C, symSize: 0x94 }
  - { offset: 0x30254, size: 0x8, addend: 0x0, symName: __ZNSt3__116allocator_traitsINS_9allocatorINS_6vectorIdNS1_IdEEEEEEE8max_sizeB8ne180100IS5_vEEmRKS5_, symObjAddr: 0x3CAD4, symBinAddr: 0x1000407C0, symSize: 0x24 }
  - { offset: 0x30282, size: 0x8, addend: 0x0, symName: __ZNKSt3__16vectorINS0_IdNS_9allocatorIdEEEENS1_IS3_EEE7__allocB8ne180100Ev, symObjAddr: 0x3CAF8, symBinAddr: 0x1000407E4, symSize: 0x28 }
  - { offset: 0x302A8, size: 0x8, addend: 0x0, symName: __ZNKSt3__19allocatorINS_6vectorIdNS0_IdEEEEE8max_sizeB8ne180100Ev, symObjAddr: 0x3CB20, symBinAddr: 0x10004080C, symSize: 0x18 }
  - { offset: 0x302CE, size: 0x8, addend: 0x0, symName: __ZNKSt3__117__compressed_pairIPNS_6vectorIdNS_9allocatorIdEEEENS2_IS4_EEE6secondB8ne180100Ev, symObjAddr: 0x3CB38, symBinAddr: 0x100040824, symSize: 0x24 }
  - { offset: 0x302F4, size: 0x8, addend: 0x0, symName: __ZNKSt3__122__compressed_pair_elemINS_9allocatorINS_6vectorIdNS1_IdEEEEEELi1ELb1EE5__getB8ne180100Ev, symObjAddr: 0x3CB5C, symBinAddr: 0x100040848, symSize: 0x14 }
  - { offset: 0x3031A, size: 0x8, addend: 0x0, symName: __ZNSt3__19allocatorINS_6vectorIdNS0_IdEEEEE8allocateB8ne180100Em, symObjAddr: 0x3CB70, symBinAddr: 0x10004085C, symSize: 0x60 }
  - { offset: 0x3034E, size: 0x8, addend: 0x0, symName: __ZNSt3__117__compressed_pairIPNS_6vectorIdNS_9allocatorIdEEEENS2_IS4_EEE6secondB8ne180100Ev, symObjAddr: 0x3CBD0, symBinAddr: 0x1000408BC, symSize: 0x24 }
  - { offset: 0x30374, size: 0x8, addend: 0x0, symName: __ZNSt3__122__compressed_pair_elemINS_9allocatorINS_6vectorIdNS1_IdEEEEEELi1ELb1EE5__getB8ne180100Ev, symObjAddr: 0x3CBF4, symBinAddr: 0x1000408E0, symSize: 0x14 }
  - { offset: 0x3039A, size: 0x8, addend: 0x0, symName: __ZNSt3__117__compressed_pairIPNS_6vectorIdNS_9allocatorIdEEEENS2_IS4_EEE5firstB8ne180100Ev, symObjAddr: 0x3CC08, symBinAddr: 0x1000408F4, symSize: 0x24 }
  - { offset: 0x303C0, size: 0x8, addend: 0x0, symName: __ZNSt3__122__compressed_pair_elemIPNS_6vectorIdNS_9allocatorIdEEEELi0ELb0EE5__getB8ne180100Ev, symObjAddr: 0x3CC2C, symBinAddr: 0x100040918, symSize: 0x14 }
  - { offset: 0x303E6, size: 0x8, addend: 0x0, symName: __ZNKSt3__16vectorINS0_IdNS_9allocatorIdEEEENS1_IS3_EEE31__annotate_contiguous_containerB8ne180100EPKvS7_, symObjAddr: 0x3CC40, symBinAddr: 0x10004092C, symSize: 0x94 }
  - { offset: 0x30448, size: 0x8, addend: 0x0, symName: __ZNKSt3__16vectorINS0_IdNS_9allocatorIdEEEENS1_IS3_EEE4dataB8ne180100Ev, symObjAddr: 0x3CCD4, symBinAddr: 0x1000409C0, symSize: 0x64 }
  - { offset: 0x3046E, size: 0x8, addend: 0x0, symName: __ZNKSt3__16vectorINS0_IdNS_9allocatorIdEEEENS1_IS3_EEE8capacityB8ne180100Ev, symObjAddr: 0x3CD38, symBinAddr: 0x100040A24, symSize: 0xBC }
  - { offset: 0x30494, size: 0x8, addend: 0x0, symName: __ZNKSt3__16vectorINS0_IdNS_9allocatorIdEEEENS1_IS3_EEE9__end_capB8ne180100Ev, symObjAddr: 0x3CE08, symBinAddr: 0x100040AF4, symSize: 0x28 }
  - { offset: 0x304BA, size: 0x8, addend: 0x0, symName: __ZNKSt3__117__compressed_pairIPNS_6vectorIdNS_9allocatorIdEEEENS2_IS4_EEE5firstB8ne180100Ev, symObjAddr: 0x3CE30, symBinAddr: 0x100040B1C, symSize: 0x24 }
  - { offset: 0x304E0, size: 0x8, addend: 0x0, symName: __ZNKSt3__122__compressed_pair_elemIPNS_6vectorIdNS_9allocatorIdEEEELi0ELb0EE5__getB8ne180100Ev, symObjAddr: 0x3CE54, symBinAddr: 0x100040B40, symSize: 0x14 }
  - { offset: 0x30522, size: 0x8, addend: 0x0, symName: __ZNSt3__16vectorINS0_IdNS_9allocatorIdEEEENS1_IS3_EEE21_ConstructTransactionC1B8ne180100ERS5_m, symObjAddr: 0x3CE68, symBinAddr: 0x100040B54, symSize: 0x3C }
  - { offset: 0x3056A, size: 0x8, addend: 0x0, symName: __ZNSt3__116allocator_traitsINS_9allocatorINS_6vectorIdNS1_IdEEEEEEE9constructB8ne180100IS4_JRKS4_EvEEvRS5_PT_DpOT0_, symObjAddr: 0x3CEA4, symBinAddr: 0x100040B90, symSize: 0x34 }
  - { offset: 0x305C1, size: 0x8, addend: 0x0, symName: __ZNSt3__16vectorINS0_IdNS_9allocatorIdEEEENS1_IS3_EEE21_ConstructTransactionD1B8ne180100Ev, symObjAddr: 0x3CED8, symBinAddr: 0x100040BC4, symSize: 0x2C }
  - { offset: 0x305EB, size: 0x8, addend: 0x0, symName: __ZNSt3__16vectorINS0_IdNS_9allocatorIdEEEENS1_IS3_EEE21_ConstructTransactionC2B8ne180100ERS5_m, symObjAddr: 0x3CF04, symBinAddr: 0x100040BF0, symSize: 0x1D8 }
  - { offset: 0x30633, size: 0x8, addend: 0x0, symName: __ZNKSt3__16vectorINS0_IdNS_9allocatorIdEEEENS1_IS3_EEE19__annotate_increaseB8ne180100Em, symObjAddr: 0x3D0DC, symBinAddr: 0x100040DC8, symSize: 0xB0 }
  - { offset: 0x30668, size: 0x8, addend: 0x0, symName: __ZNKSt3__16vectorINS0_IdNS_9allocatorIdEEEENS1_IS3_EEE4sizeB8ne180100Ev, symObjAddr: 0x3D18C, symBinAddr: 0x100040E78, symSize: 0xB0 }
  - { offset: 0x3068E, size: 0x8, addend: 0x0, symName: __ZNSt3__19allocatorINS_6vectorIdNS0_IdEEEEE9constructB8ne180100IS3_JRKS3_EEEvPT_DpOT0_, symObjAddr: 0x3D23C, symBinAddr: 0x100040F28, symSize: 0x30 }
  - { offset: 0x306E4, size: 0x8, addend: 0x0, symName: __ZNSt3__16vectorINS0_IdNS_9allocatorIdEEEENS1_IS3_EEE21_ConstructTransactionD2B8ne180100Ev, symObjAddr: 0x3D26C, symBinAddr: 0x100040F58, symSize: 0x278 }
  - { offset: 0x3070E, size: 0x8, addend: 0x0, symName: __ZNKSt3__16vectorINS0_IdNS_9allocatorIdEEEENS1_IS3_EEE17__annotate_shrinkB8ne180100Em, symObjAddr: 0x3D4E4, symBinAddr: 0x1000411D0, symSize: 0x9C }
  - { offset: 0x30743, size: 0x8, addend: 0x0, symName: __ZNSt3__128__exception_guard_exceptionsINS_6vectorINS1_IdNS_9allocatorIdEEEENS2_IS4_EEE16__destroy_vectorEED2B8ne180100Ev, symObjAddr: 0x3D580, symBinAddr: 0x10004126C, symSize: 0xBC }
  - { offset: 0x3076D, size: 0x8, addend: 0x0, symName: __ZNSt3__16vectorINS0_IdNS_9allocatorIdEEEENS1_IS3_EEE16__destroy_vectorclB8ne180100Ev, symObjAddr: 0x3D63C, symBinAddr: 0x100041328, symSize: 0x228 }
  - { offset: 0x30793, size: 0x8, addend: 0x0, symName: __ZNSt3__16vectorINS0_IdNS_9allocatorIdEEEENS1_IS3_EEE7__clearB8ne180100Ev, symObjAddr: 0x3D864, symBinAddr: 0x100041550, symSize: 0x64 }
  - { offset: 0x307B9, size: 0x8, addend: 0x0, symName: __ZNKSt3__16vectorINS0_IdNS_9allocatorIdEEEENS1_IS3_EEE17__annotate_deleteB8ne180100Ev, symObjAddr: 0x3D8C8, symBinAddr: 0x1000415B4, symSize: 0xA0 }
  - { offset: 0x307DF, size: 0x8, addend: 0x0, symName: __ZNSt3__116allocator_traitsINS_9allocatorINS_6vectorIdNS1_IdEEEEEEE10deallocateB8ne180100ERS5_PS4_m, symObjAddr: 0x3D968, symBinAddr: 0x100041654, symSize: 0x34 }
  - { offset: 0x30821, size: 0x8, addend: 0x0, symName: __ZNSt3__16vectorINS0_IdNS_9allocatorIdEEEENS1_IS3_EEE22__base_destruct_at_endB8ne180100EPS3_, symObjAddr: 0x3D99C, symBinAddr: 0x100041688, symSize: 0x114 }
  - { offset: 0x30865, size: 0x8, addend: 0x0, symName: __ZNSt3__116allocator_traitsINS_9allocatorINS_6vectorIdNS1_IdEEEEEEE7destroyB8ne180100IS4_vEEvRS5_PT_, symObjAddr: 0x3DAB0, symBinAddr: 0x10004179C, symSize: 0x2C }
  - { offset: 0x308A2, size: 0x8, addend: 0x0, symName: __ZNSt3__19allocatorINS_6vectorIdNS0_IdEEEEE7destroyB8ne180100EPS3_, symObjAddr: 0x3DADC, symBinAddr: 0x1000417C8, symSize: 0x28 }
  - { offset: 0x308D6, size: 0x8, addend: 0x0, symName: __ZNSt3__19allocatorINS_6vectorIdNS0_IdEEEEE10deallocateB8ne180100EPS3_m, symObjAddr: 0x3DB04, symBinAddr: 0x1000417F0, symSize: 0x50 }
  - { offset: 0x30918, size: 0x8, addend: 0x0, symName: __ZNSt3__16vectorINS0_IdNS_9allocatorIdEEEENS1_IS3_EEED2B8ne180100Ev, symObjAddr: 0x3DB54, symBinAddr: 0x100041840, symSize: 0x22C }
  - { offset: 0x30943, size: 0x8, addend: 0x0, symName: __ZNSt3__16vectorIiNS_9allocatorIiEEEC2EmRKi, symObjAddr: 0x3DD80, symBinAddr: 0x100041A6C, symSize: 0x4CC }
  - { offset: 0x309A9, size: 0x8, addend: 0x0, symName: __ZNSt3__16vectorIiNS_9allocatorIiEEE18__construct_at_endEmRKi, symObjAddr: 0x3E24C, symBinAddr: 0x100041F38, symSize: 0x414 }
  - { offset: 0x30A33, size: 0x8, addend: 0x0, symName: __ZNSt3__116allocator_traitsINS_9allocatorIiEEE9constructB8ne180100IiJRKiEvEEvRS2_PT_DpOT0_, symObjAddr: 0x3E660, symBinAddr: 0x10004234C, symSize: 0x34 }
  - { offset: 0x30A8A, size: 0x8, addend: 0x0, symName: __ZNSt3__19allocatorIiE9constructB8ne180100IiJRKiEEEvPT_DpOT0_, symObjAddr: 0x3E694, symBinAddr: 0x100042380, symSize: 0x104 }
  - { offset: 0x30AE0, size: 0x8, addend: 0x0, symName: __ZNSt3__13setIiNS_4lessIiEENS_9allocatorIiEEEC2B8ne180100ESt16initializer_listIiERKS2_, symObjAddr: 0x3E798, symBinAddr: 0x100042484, symSize: 0x2EC }
  - { offset: 0x30B2E, size: 0x8, addend: 0x0, symName: __ZNSt3__13setIiNS_4lessIiEENS_9allocatorIiEEE6insertB8ne180100IPKiEEvT_S9_, symObjAddr: 0x3EA84, symBinAddr: 0x100042770, symSize: 0x340 }
  - { offset: 0x30B9F, size: 0x8, addend: 0x0, symName: __ZNKSt16initializer_listIiE5beginB8ne180100Ev, symObjAddr: 0x3EDC4, symBinAddr: 0x100042AB0, symSize: 0x60 }
  - { offset: 0x30BC5, size: 0x8, addend: 0x0, symName: __ZNKSt16initializer_listIiE3endB8ne180100Ev, symObjAddr: 0x3EE24, symBinAddr: 0x100042B10, symSize: 0xA8 }
  - { offset: 0x30BEB, size: 0x8, addend: 0x0, symName: __ZNKSt3__13setIiNS_4lessIiEENS_9allocatorIiEEE4cendB8ne180100Ev, symObjAddr: 0x3EECC, symBinAddr: 0x100042BB8, symSize: 0x22C }
  - { offset: 0x30C12, size: 0x8, addend: 0x0, symName: __ZNSt3__16__treeIiNS_4lessIiEENS_9allocatorIiEEE15__insert_uniqueB8ne180100ENS_21__tree_const_iteratorIiPNS_11__tree_nodeIiPvEElEERKi, symObjAddr: 0x3F0F8, symBinAddr: 0x100042DE4, symSize: 0x39C }
  - { offset: 0x30C5C, size: 0x8, addend: 0x0, symName: __ZNKSt3__13setIiNS_4lessIiEENS_9allocatorIiEEE3endB8ne180100Ev, symObjAddr: 0x3F494, symBinAddr: 0x100043180, symSize: 0x22C }
  - { offset: 0x30C83, size: 0x8, addend: 0x0, symName: __ZNKSt3__16__treeIiNS_4lessIiEENS_9allocatorIiEEE3endB8ne180100Ev, symObjAddr: 0x3F6C0, symBinAddr: 0x1000433AC, symSize: 0x1FC }
  - { offset: 0x30CAA, size: 0x8, addend: 0x0, symName: __ZNSt3__121__tree_const_iteratorIiPNS_11__tree_nodeIiPvEElEC1B8ne180100EPNS_15__tree_end_nodeIPNS_16__tree_node_baseIS2_EEEE, symObjAddr: 0x3F8BC, symBinAddr: 0x1000435A8, symSize: 0x34 }
  - { offset: 0x30CE3, size: 0x8, addend: 0x0, symName: __ZNSt3__121__tree_const_iteratorIiPNS_11__tree_nodeIiPvEElEC2B8ne180100EPNS_15__tree_end_nodeIPNS_16__tree_node_baseIS2_EEEE, symObjAddr: 0x3F8F0, symBinAddr: 0x1000435DC, symSize: 0x70 }
  - { offset: 0x30D1C, size: 0x8, addend: 0x0, symName: __ZNSt3__16__treeIiNS_4lessIiEENS_9allocatorIiEEE30__emplace_hint_unique_key_argsIiJRKiEEENS_4pairINS_15__tree_iteratorIiPNS_11__tree_nodeIiPvEElEEbEENS_21__tree_const_iteratorIiSE_lEERKT_DpOT0_, symObjAddr: 0x3F960, symBinAddr: 0x10004364C, symSize: 0x604 }
  - { offset: 0x30E01, size: 0x8, addend: 0x0, symName: __ZNSt3__16__treeIiNS_4lessIiEENS_9allocatorIiEEE12__find_equalIiEERPNS_16__tree_node_baseIPvEENS_21__tree_const_iteratorIiPNS_11__tree_nodeIiS8_EElEERPNS_15__tree_end_nodeISA_EESB_RKT_, symObjAddr: 0x3FF64, symBinAddr: 0x100043C50, symSize: 0xC4C }
  - { offset: 0x30EBA, size: 0x8, addend: 0x0, symName: __ZNSt3__16__treeIiNS_4lessIiEENS_9allocatorIiEEE3endB8ne180100Ev, symObjAddr: 0x40C68, symBinAddr: 0x100044954, symSize: 0x1FC }
  - { offset: 0x30EE1, size: 0x8, addend: 0x0, symName: __ZNSt3__16__treeIiNS_4lessIiEENS_9allocatorIiEEE5beginB8ne180100Ev, symObjAddr: 0x40E64, symBinAddr: 0x100044B50, symSize: 0x230 }
  - { offset: 0x30F08, size: 0x8, addend: 0x0, symName: __ZNSt3__121__tree_const_iteratorIiPNS_11__tree_nodeIiPvEElEmmB8ne180100Ev, symObjAddr: 0x41094, symBinAddr: 0x100044D80, symSize: 0xA8 }
  - { offset: 0x30F2E, size: 0x8, addend: 0x0, symName: __ZNKSt3__121__tree_const_iteratorIiPNS_11__tree_nodeIiPvEElE8__get_npB8ne180100Ev, symObjAddr: 0x413B4, symBinAddr: 0x1000450A0, symSize: 0x60 }
  - { offset: 0x30F54, size: 0x8, addend: 0x0, symName: __ZNSt3__115__tree_iteratorIiPNS_11__tree_nodeIiPvEElEC1B8ne180100EPNS_15__tree_end_nodeIPNS_16__tree_node_baseIS2_EEEE, symObjAddr: 0x41414, symBinAddr: 0x100045100, symSize: 0x34 }
  - { offset: 0x30F8D, size: 0x8, addend: 0x0, symName: __ZNSt3__115__tree_iteratorIiPNS_11__tree_nodeIiPvEElEC2B8ne180100EPNS_15__tree_end_nodeIPNS_16__tree_node_baseIS2_EEEE, symObjAddr: 0x41448, symBinAddr: 0x100045134, symSize: 0x70 }
  - { offset: 0x30FC6, size: 0x8, addend: 0x0, symName: __ZNSt3__16__treeIiNS_4lessIiEENS_9allocatorIiEEE14__erase_uniqueIiEEmRKT_, symObjAddr: 0x41968, symBinAddr: 0x100045654, symSize: 0x42C }
  - { offset: 0x3101B, size: 0x8, addend: 0x0, symName: __ZNSt3__16__treeIiNS_4lessIiEENS_9allocatorIiEEE4findIiEENS_15__tree_iteratorIiPNS_11__tree_nodeIiPvEElEERKT_, symObjAddr: 0x41D94, symBinAddr: 0x100045A80, symSize: 0x3EC }
  - { offset: 0x31070, size: 0x8, addend: 0x0, symName: __ZNSt3__16__treeIiNS_4lessIiEENS_9allocatorIiEEE5eraseENS_21__tree_const_iteratorIiPNS_11__tree_nodeIiPvEElEE, symObjAddr: 0x42238, symBinAddr: 0x100045F24, symSize: 0x300 }
  - { offset: 0x310DF, size: 0x8, addend: 0x0, symName: __ZNSt3__16__treeIiNS_4lessIiEENS_9allocatorIiEEE13__lower_boundIiEENS_15__tree_iteratorIiPNS_11__tree_nodeIiPvEElEERKT_SB_PNS_15__tree_end_nodeIPNS_16__tree_node_baseIS9_EEEE, symObjAddr: 0x42538, symBinAddr: 0x100046224, symSize: 0x2D8 }
  - { offset: 0x31141, size: 0x8, addend: 0x0, symName: __ZNKSt3__115__tree_iteratorIiPNS_11__tree_nodeIiPvEElEdeB8ne180100Ev, symObjAddr: 0x42844, symBinAddr: 0x100046530, symSize: 0x28 }
  - { offset: 0x31167, size: 0x8, addend: 0x0, symName: __ZNKSt3__115__tree_iteratorIiPNS_11__tree_nodeIiPvEElE8__get_npB8ne180100Ev, symObjAddr: 0x4286C, symBinAddr: 0x100046558, symSize: 0x60 }
  - { offset: 0x3118D, size: 0x8, addend: 0x0, symName: __ZNSt3__16__treeIiNS_4lessIiEENS_9allocatorIiEEE21__remove_node_pointerEPNS_11__tree_nodeIiPvEE, symObjAddr: 0x428CC, symBinAddr: 0x1000465B8, symSize: 0x3D8 }
  - { offset: 0x311D9, size: 0x8, addend: 0x0, symName: __ZNSt3__115__tree_iteratorIiPNS_11__tree_nodeIiPvEElEppB8ne180100Ev, symObjAddr: 0x42CA4, symBinAddr: 0x100046990, symSize: 0xA8 }
  - { offset: 0x311FF, size: 0x8, addend: 0x0, symName: __ZNSt3__16vectorI6SommetNS_9allocatorIS1_EEE11__make_iterB8ne180100EPS1_, symObjAddr: 0x44D1C, symBinAddr: 0x100048A08, symSize: 0x1F4 }
  - { offset: 0x31236, size: 0x8, addend: 0x0, symName: __ZNSt3__111__wrap_iterIP6SommetEC1B8ne180100ES2_, symObjAddr: 0x44F10, symBinAddr: 0x100048BFC, symSize: 0x34 }
  - { offset: 0x3126E, size: 0x8, addend: 0x0, symName: __ZNSt3__111__wrap_iterIP6SommetEC2B8ne180100ES2_, symObjAddr: 0x44F44, symBinAddr: 0x100048C30, symSize: 0x70 }
  - { offset: 0x312A6, size: 0x8, addend: 0x0, symName: __ZNSt3__16vectorIdNS_9allocatorIdEEEC2B8ne180100Ev, symObjAddr: 0x44FB4, symBinAddr: 0x100048CA0, symSize: 0x324 }
  - { offset: 0x312D1, size: 0x8, addend: 0x0, symName: __ZNSt3__16vectorIdNS_9allocatorIdEEE22__construct_one_at_endB8ne180100IJRKdEEEvDpOT_, symObjAddr: 0x452D8, symBinAddr: 0x100048FC4, symSize: 0x390 }
  - { offset: 0x31326, size: 0x8, addend: 0x0, symName: __ZNSt3__16vectorIdNS_9allocatorIdEEE21__push_back_slow_pathIRKdEEPdOT_, symObjAddr: 0x45668, symBinAddr: 0x100049354, symSize: 0x42C }
  - { offset: 0x3138B, size: 0x8, addend: 0x0, symName: __ZNKSt3__16vectorIdNS_9allocatorIdEEE11__recommendB8ne180100Em, symObjAddr: 0x45A94, symBinAddr: 0x100049780, symSize: 0x374 }
  - { offset: 0x313E7, size: 0x8, addend: 0x0, symName: __ZNSt3__114__split_bufferIdRNS_9allocatorIdEEEC1EmmS3_, symObjAddr: 0x45E08, symBinAddr: 0x100049AF4, symSize: 0x44 }
  - { offset: 0x3143D, size: 0x8, addend: 0x0, symName: __ZNSt3__114__split_bufferIdRNS_9allocatorIdEEED1Ev, symObjAddr: 0x463B0, symBinAddr: 0x10004A09C, symSize: 0x2C }
  - { offset: 0x31469, size: 0x8, addend: 0x0, symName: __ZNSt3__114__split_bufferIdRNS_9allocatorIdEEEC2EmmS3_, symObjAddr: 0x463DC, symBinAddr: 0x10004A0C8, symSize: 0x510 }
  - { offset: 0x314E4, size: 0x8, addend: 0x0, symName: __ZNSt3__117__compressed_pairIPdRNS_9allocatorIdEEEC1B8ne180100IDnS4_EEOT_OT0_, symObjAddr: 0x468EC, symBinAddr: 0x10004A5D8, symSize: 0x3C }
  - { offset: 0x3153C, size: 0x8, addend: 0x0, symName: __ZNSt3__114__split_bufferIdRNS_9allocatorIdEEE7__allocB8ne180100Ev, symObjAddr: 0x46928, symBinAddr: 0x10004A614, symSize: 0x28 }
  - { offset: 0x31562, size: 0x8, addend: 0x0, symName: __ZNSt3__114__split_bufferIdRNS_9allocatorIdEEE9__end_capB8ne180100Ev, symObjAddr: 0x46950, symBinAddr: 0x10004A63C, symSize: 0x28 }
  - { offset: 0x31588, size: 0x8, addend: 0x0, symName: __ZNSt3__117__compressed_pairIPdRNS_9allocatorIdEEEC2B8ne180100IDnS4_EEOT_OT0_, symObjAddr: 0x46978, symBinAddr: 0x10004A664, symSize: 0x48 }
  - { offset: 0x315E0, size: 0x8, addend: 0x0, symName: __ZNSt3__122__compressed_pair_elemIRNS_9allocatorIdEELi1ELb0EEC2B8ne180100IS3_vEEOT_, symObjAddr: 0x469C0, symBinAddr: 0x10004A6AC, symSize: 0x70 }
  - { offset: 0x31622, size: 0x8, addend: 0x0, symName: __ZNSt3__117__compressed_pairIPdRNS_9allocatorIdEEE6secondB8ne180100Ev, symObjAddr: 0x46A30, symBinAddr: 0x10004A71C, symSize: 0x28 }
  - { offset: 0x31648, size: 0x8, addend: 0x0, symName: __ZNSt3__122__compressed_pair_elemIRNS_9allocatorIdEELi1ELb0EE5__getB8ne180100Ev, symObjAddr: 0x46A58, symBinAddr: 0x10004A744, symSize: 0x60 }
  - { offset: 0x3166E, size: 0x8, addend: 0x0, symName: __ZNSt3__117__compressed_pairIPdRNS_9allocatorIdEEE5firstB8ne180100Ev, symObjAddr: 0x46AB8, symBinAddr: 0x10004A7A4, symSize: 0x24 }
  - { offset: 0x31694, size: 0x8, addend: 0x0, symName: __ZNSt3__116reverse_iteratorIPdEC1B8ne180100ES1_, symObjAddr: 0x46F7C, symBinAddr: 0x10004AC68, symSize: 0x34 }
  - { offset: 0x316CC, size: 0x8, addend: 0x0, symName: __ZNKSt3__116reverse_iteratorIPdE4baseB8ne180100Ev, symObjAddr: 0x46FB0, symBinAddr: 0x10004AC9C, symSize: 0x64 }
  - { offset: 0x3170F, size: 0x8, addend: 0x0, symName: __ZNKSt3__111__move_loopINS_17_ClassicAlgPolicyEEclB8ne180100INS_16reverse_iteratorIPdEES6_S6_EENS_4pairIT_T1_EES8_T0_S9_, symObjAddr: 0x48AF0, symBinAddr: 0x10004C7DC, symSize: 0x398 }
  - { offset: 0x3178D, size: 0x8, addend: 0x0, symName: __ZNSt3__18_IterOpsINS_17_ClassicAlgPolicyEE11__iter_moveB8ne180100IRNS_16reverse_iteratorIPdEELi0EEEDTclsr3stdE4movedeclsr3stdE7declvalIRT_EEEEOS8_, symObjAddr: 0x499E8, symBinAddr: 0x10004D6D4, symSize: 0x28 }
  - { offset: 0x317BF, size: 0x8, addend: 0x0, symName: __ZNKSt3__116reverse_iteratorIPdEdeB8ne180100Ev, symObjAddr: 0x49A10, symBinAddr: 0x10004D6FC, symSize: 0x74 }
  - { offset: 0x317F3, size: 0x8, addend: 0x0, symName: __ZNSt3__116reverse_iteratorIPdEppB8ne180100Ev, symObjAddr: 0x49A84, symBinAddr: 0x10004D770, symSize: 0x6C }
  - { offset: 0x31819, size: 0x8, addend: 0x0, symName: __ZNSt3__18_IterOpsINS_17_ClassicAlgPolicyEE25__validate_iter_referenceB8ne180100IRNS_16reverse_iteratorIPdEEEEvv, symObjAddr: 0x49AF0, symBinAddr: 0x10004D7DC, symSize: 0x4 }
  - { offset: 0x31837, size: 0x8, addend: 0x0, symName: __ZNSt3__118__unwrap_iter_implINS_16reverse_iteratorIPdEELb0EE8__unwrapB8ne180100ES3_, symObjAddr: 0x49AF4, symBinAddr: 0x10004D7E0, symSize: 0x264 }
  - { offset: 0x31864, size: 0x8, addend: 0x0, symName: __ZNSt3__14pairINS_16reverse_iteratorIPdEES3_EC1B8ne180100IS3_S3_Li0EEEOT_OT0_, symObjAddr: 0x49D58, symBinAddr: 0x10004DA44, symSize: 0x3C }
  - { offset: 0x318C2, size: 0x8, addend: 0x0, symName: __ZNSt3__14pairINS_16reverse_iteratorIPdEES3_EC2B8ne180100IS3_S3_Li0EEEOT_OT0_, symObjAddr: 0x49D94, symBinAddr: 0x10004DA80, symSize: 0x54 }
  - { offset: 0x31920, size: 0x8, addend: 0x0, symName: __ZNSt3__118__unwrap_iter_implINS_16reverse_iteratorIPdEELb0EE8__rewrapB8ne180100ES3_S3_, symObjAddr: 0x49DE8, symBinAddr: 0x10004DAD4, symSize: 0x2D0 }
  - { offset: 0x31955, size: 0x8, addend: 0x0, symName: __ZNSt3__116reverse_iteratorIPdEC2B8ne180100ES1_, symObjAddr: 0x4A0B8, symBinAddr: 0x10004DDA4, symSize: 0xB8 }
  - { offset: 0x3198D, size: 0x8, addend: 0x0, symName: __ZNSt3__114__split_bufferIdRNS_9allocatorIdEEED2Ev, symObjAddr: 0x4A170, symBinAddr: 0x10004DE5C, symSize: 0x104 }
  - { offset: 0x319B9, size: 0x8, addend: 0x0, symName: __ZNSt3__114__split_bufferIdRNS_9allocatorIdEEE5clearB8ne180100Ev, symObjAddr: 0x4A274, symBinAddr: 0x10004DF60, symSize: 0x68 }
  - { offset: 0x319DF, size: 0x8, addend: 0x0, symName: __ZNKSt3__114__split_bufferIdRNS_9allocatorIdEEE8capacityB8ne180100Ev, symObjAddr: 0x4A2DC, symBinAddr: 0x10004DFC8, symSize: 0xBC }
  - { offset: 0x31A05, size: 0x8, addend: 0x0, symName: __ZNSt3__114__split_bufferIdRNS_9allocatorIdEEE17__destruct_at_endB8ne180100EPd, symObjAddr: 0x4A398, symBinAddr: 0x10004E084, symSize: 0x2C }
  - { offset: 0x31A39, size: 0x8, addend: 0x0, symName: __ZNSt3__114__split_bufferIdRNS_9allocatorIdEEE17__destruct_at_endB8ne180100EPdNS_17integral_constantIbLb0EEE, symObjAddr: 0x4A3C4, symBinAddr: 0x10004E0B0, symSize: 0x10C }
  - { offset: 0x31A79, size: 0x8, addend: 0x0, symName: __ZNKSt3__114__split_bufferIdRNS_9allocatorIdEEE9__end_capB8ne180100Ev, symObjAddr: 0x4A4D0, symBinAddr: 0x10004E1BC, symSize: 0x28 }
  - { offset: 0x31A9F, size: 0x8, addend: 0x0, symName: __ZNKSt3__117__compressed_pairIPdRNS_9allocatorIdEEE5firstB8ne180100Ev, symObjAddr: 0x4A4F8, symBinAddr: 0x10004E1E4, symSize: 0x24 }
  - { offset: 0x31AC5, size: 0x8, addend: 0x0, symName: __ZNSt3__123mersenne_twister_engineIjLm32ELm624ELm397ELm31ELj2567483615ELm11ELj4294967295ELm7ELj2636928640ELm15ELj4022730752ELm18ELj1812433253EEC2B8ne180100Ej, symObjAddr: 0x4A51C, symBinAddr: 0x10004E208, symSize: 0x34 }
  - { offset: 0x31AFD, size: 0x8, addend: 0x0, symName: __ZNSt3__123mersenne_twister_engineIjLm32ELm624ELm397ELm31ELj2567483615ELm11ELj4294967295ELm7ELj2636928640ELm15ELj4022730752ELm18ELj1812433253EE4seedEj, symObjAddr: 0x4A550, symBinAddr: 0x10004E23C, symSize: 0x298 }
  - { offset: 0x31B50, size: 0x8, addend: 0x0, symName: __ZNSt3__123mersenne_twister_engineIjLm32ELm624ELm397ELm31ELj2567483615ELm11ELj4294967295ELm7ELj2636928640ELm15ELj4022730752ELm18ELj1812433253EE8__rshiftB8ne180100ILm30ELi0EEEjj, symObjAddr: 0x4A7E8, symBinAddr: 0x10004E4D4, symSize: 0x18 }
  - { offset: 0x31B84, size: 0x8, addend: 0x0, symName: __ZNSt3__119normal_distributionIdEC2B8ne180100Edd, symObjAddr: 0x4A800, symBinAddr: 0x10004E4EC, symSize: 0xA8 }
  - { offset: 0x31BCA, size: 0x8, addend: 0x0, symName: __ZNSt3__119normal_distributionIdE10param_typeC1B8ne180100Edd, symObjAddr: 0x4A8A8, symBinAddr: 0x10004E594, symSize: 0x3C }
  - { offset: 0x31C10, size: 0x8, addend: 0x0, symName: __ZNSt3__119normal_distributionIdE10param_typeC2B8ne180100Edd, symObjAddr: 0x4A8E4, symBinAddr: 0x10004E5D0, symSize: 0xBC }
  - { offset: 0x31C56, size: 0x8, addend: 0x0, symName: __ZNSt3__119normal_distributionIdEclINS_23mersenne_twister_engineIjLm32ELm624ELm397ELm31ELj2567483615ELm11ELj4294967295ELm7ELj2636928640ELm15ELj4022730752ELm18ELj1812433253EEEEEdRT_RKNS1_10param_typeE, symObjAddr: 0x4A9A0, symBinAddr: 0x10004E68C, symSize: 0x484 }
  - { offset: 0x31D38, size: 0x8, addend: 0x0, symName: __ZNSt3__125uniform_real_distributionIdEC1B8ne180100Edd, symObjAddr: 0x4AE24, symBinAddr: 0x10004EB10, symSize: 0x3C }
  - { offset: 0x31D7E, size: 0x8, addend: 0x0, symName: __ZNSt3__125uniform_real_distributionIdEclB8ne180100INS_23mersenne_twister_engineIjLm32ELm624ELm397ELm31ELj2567483615ELm11ELj4294967295ELm7ELj2636928640ELm15ELj4022730752ELm18ELj1812433253EEEEEdRT_, symObjAddr: 0x4AE60, symBinAddr: 0x10004EB4C, symSize: 0x30 }
  - { offset: 0x31DBB, size: 0x8, addend: 0x0, symName: __ZNKSt3__119normal_distributionIdE10param_type6stddevB8ne180100Ev, symObjAddr: 0x4AE90, symBinAddr: 0x10004EB7C, symSize: 0x64 }
  - { offset: 0x31DE1, size: 0x8, addend: 0x0, symName: __ZNKSt3__119normal_distributionIdE10param_type4meanB8ne180100Ev, symObjAddr: 0x4AEF4, symBinAddr: 0x10004EBE0, symSize: 0x60 }
  - { offset: 0x31E07, size: 0x8, addend: 0x0, symName: __ZNSt3__125uniform_real_distributionIdEC2B8ne180100Edd, symObjAddr: 0x4AF54, symBinAddr: 0x10004EC40, symSize: 0x3C }
  - { offset: 0x31E4D, size: 0x8, addend: 0x0, symName: __ZNSt3__125uniform_real_distributionIdE10param_typeC1B8ne180100Edd, symObjAddr: 0x4AF90, symBinAddr: 0x10004EC7C, symSize: 0x3C }
  - { offset: 0x31E93, size: 0x8, addend: 0x0, symName: __ZNSt3__125uniform_real_distributionIdE10param_typeC2B8ne180100Edd, symObjAddr: 0x4AFCC, symBinAddr: 0x10004ECB8, symSize: 0xBC }
  - { offset: 0x31ED9, size: 0x8, addend: 0x0, symName: __ZNSt3__125uniform_real_distributionIdEclINS_23mersenne_twister_engineIjLm32ELm624ELm397ELm31ELj2567483615ELm11ELj4294967295ELm7ELj2636928640ELm15ELj4022730752ELm18ELj1812433253EEEEEdRT_RKNS1_10param_typeE, symObjAddr: 0x4B088, symBinAddr: 0x10004ED74, symSize: 0x6C }
  - { offset: 0x31F25, size: 0x8, addend: 0x0, symName: __ZNKSt3__125uniform_real_distributionIdE10param_type1bB8ne180100Ev, symObjAddr: 0x4B0F4, symBinAddr: 0x10004EDE0, symSize: 0x64 }
  - { offset: 0x31F4B, size: 0x8, addend: 0x0, symName: __ZNKSt3__125uniform_real_distributionIdE10param_type1aB8ne180100Ev, symObjAddr: 0x4B158, symBinAddr: 0x10004EE44, symSize: 0x60 }
  - { offset: 0x31F71, size: 0x8, addend: 0x0, symName: __ZNSt3__123mersenne_twister_engineIjLm32ELm624ELm397ELm31ELj2567483615ELm11ELj4294967295ELm7ELj2636928640ELm15ELj4022730752ELm18ELj1812433253EE3maxB8ne180100Ev, symObjAddr: 0x4B2D0, symBinAddr: 0x10004EFBC, symSize: 0x8 }
  - { offset: 0x31F85, size: 0x8, addend: 0x0, symName: __ZNSt3__123mersenne_twister_engineIjLm32ELm624ELm397ELm31ELj2567483615ELm11ELj4294967295ELm7ELj2636928640ELm15ELj4022730752ELm18ELj1812433253EE3minB8ne180100Ev, symObjAddr: 0x4B2D8, symBinAddr: 0x10004EFC4, symSize: 0x8 }
  - { offset: 0x31F99, size: 0x8, addend: 0x0, symName: __ZNSt3__123mersenne_twister_engineIjLm32ELm624ELm397ELm31ELj2567483615ELm11ELj4294967295ELm7ELj2636928640ELm15ELj4022730752ELm18ELj1812433253EEclEv, symObjAddr: 0x4B2E0, symBinAddr: 0x10004EFCC, symSize: 0x538 }
  - { offset: 0x3200C, size: 0x8, addend: 0x0, symName: __ZNSt3__123mersenne_twister_engineIjLm32ELm624ELm397ELm31ELj2567483615ELm11ELj4294967295ELm7ELj2636928640ELm15ELj4022730752ELm18ELj1812433253EE8__rshiftB8ne180100ILm1ELi0EEEjj, symObjAddr: 0x4B818, symBinAddr: 0x10004F504, symSize: 0x18 }
  - { offset: 0x32040, size: 0x8, addend: 0x0, symName: __ZNSt3__123mersenne_twister_engineIjLm32ELm624ELm397ELm31ELj2567483615ELm11ELj4294967295ELm7ELj2636928640ELm15ELj4022730752ELm18ELj1812433253EE8__rshiftB8ne180100ILm11ELi0EEEjj, symObjAddr: 0x4B830, symBinAddr: 0x10004F51C, symSize: 0x18 }
  - { offset: 0x32074, size: 0x8, addend: 0x0, symName: __ZNSt3__123mersenne_twister_engineIjLm32ELm624ELm397ELm31ELj2567483615ELm11ELj4294967295ELm7ELj2636928640ELm15ELj4022730752ELm18ELj1812433253EE8__lshiftB8ne180100ILm7ELi0EEEjj, symObjAddr: 0x4B848, symBinAddr: 0x10004F534, symSize: 0x1C }
  - { offset: 0x320A8, size: 0x8, addend: 0x0, symName: __ZNSt3__123mersenne_twister_engineIjLm32ELm624ELm397ELm31ELj2567483615ELm11ELj4294967295ELm7ELj2636928640ELm15ELj4022730752ELm18ELj1812433253EE8__lshiftB8ne180100ILm15ELi0EEEjj, symObjAddr: 0x4B864, symBinAddr: 0x10004F550, symSize: 0x1C }
  - { offset: 0x320DC, size: 0x8, addend: 0x0, symName: __ZNSt3__123mersenne_twister_engineIjLm32ELm624ELm397ELm31ELj2567483615ELm11ELj4294967295ELm7ELj2636928640ELm15ELj4022730752ELm18ELj1812433253EE8__rshiftB8ne180100ILm18ELi0EEEjj, symObjAddr: 0x4B880, symBinAddr: 0x10004F56C, symSize: 0x18 }
  - { offset: 0x32110, size: 0x8, addend: 0x0, symName: __ZNSt3__16vectorI8ObstacleNS_9allocatorIS1_EEEC2B8ne180100Ev, symObjAddr: 0x4B898, symBinAddr: 0x10004F584, symSize: 0x324 }
  - { offset: 0x3213B, size: 0x8, addend: 0x0, symName: __ZNSt3__117__compressed_pairIP8ObstacleNS_9allocatorIS1_EEEC1B8ne180100IDnNS_18__default_init_tagEEEOT_OT0_, symObjAddr: 0x4BBBC, symBinAddr: 0x10004F8A8, symSize: 0x3C }
  - { offset: 0x32193, size: 0x8, addend: 0x0, symName: __ZNSt3__117__compressed_pairIP8ObstacleNS_9allocatorIS1_EEEC2B8ne180100IDnNS_18__default_init_tagEEEOT_OT0_, symObjAddr: 0x4BBF8, symBinAddr: 0x10004F8E4, symSize: 0x40 }
  - { offset: 0x321EB, size: 0x8, addend: 0x0, symName: __ZNSt3__122__compressed_pair_elemIP8ObstacleLi0ELb0EEC2B8ne180100IDnvEEOT_, symObjAddr: 0x4BC38, symBinAddr: 0x10004F924, symSize: 0x64 }
  - { offset: 0x3222D, size: 0x8, addend: 0x0, symName: __ZNSt3__122__compressed_pair_elemINS_9allocatorI8ObstacleEELi1ELb1EEC2B8ne180100ENS_18__default_init_tagE, symObjAddr: 0x4BC9C, symBinAddr: 0x10004F988, symSize: 0x2C }
  - { offset: 0x32261, size: 0x8, addend: 0x0, symName: __ZNSt3__19allocatorI8ObstacleEC2B8ne180100Ev, symObjAddr: 0x4BCC8, symBinAddr: 0x10004F9B4, symSize: 0x2C }
  - { offset: 0x3228B, size: 0x8, addend: 0x0, symName: __ZNSt3__116__non_trivial_ifILb1ENS_9allocatorI8ObstacleEEEC2B8ne180100Ev, symObjAddr: 0x4BCF4, symBinAddr: 0x10004F9E0, symSize: 0x14 }
  - { offset: 0x322B5, size: 0x8, addend: 0x0, symName: __ZNSt3__16vectorI8ObstacleNS_9allocatorIS1_EEED2B8ne180100Ev, symObjAddr: 0x4BD08, symBinAddr: 0x10004F9F4, symSize: 0x230 }
  - { offset: 0x322E0, size: 0x8, addend: 0x0, symName: __ZNSt3__16vectorI8ObstacleNS_9allocatorIS1_EEE16__destroy_vectorC1B8ne180100ERS4_, symObjAddr: 0x4BF38, symBinAddr: 0x10004FC24, symSize: 0x34 }
  - { offset: 0x32319, size: 0x8, addend: 0x0, symName: __ZNSt3__16vectorI8ObstacleNS_9allocatorIS1_EEE16__destroy_vectorclB8ne180100Ev, symObjAddr: 0x4BF6C, symBinAddr: 0x10004FC58, symSize: 0x228 }
  - { offset: 0x3233F, size: 0x8, addend: 0x0, symName: __ZNSt3__16vectorI8ObstacleNS_9allocatorIS1_EEE16__destroy_vectorC2B8ne180100ERS4_, symObjAddr: 0x4C194, symBinAddr: 0x10004FE80, symSize: 0x70 }
  - { offset: 0x32378, size: 0x8, addend: 0x0, symName: __ZNSt3__16vectorI8ObstacleNS_9allocatorIS1_EEE7__clearB8ne180100Ev, symObjAddr: 0x4C204, symBinAddr: 0x10004FEF0, symSize: 0x64 }
  - { offset: 0x3239E, size: 0x8, addend: 0x0, symName: __ZNKSt3__16vectorI8ObstacleNS_9allocatorIS1_EEE17__annotate_deleteB8ne180100Ev, symObjAddr: 0x4C268, symBinAddr: 0x10004FF54, symSize: 0xA0 }
  - { offset: 0x323C4, size: 0x8, addend: 0x0, symName: __ZNSt3__116allocator_traitsINS_9allocatorI8ObstacleEEE10deallocateB8ne180100ERS3_PS2_m, symObjAddr: 0x4C308, symBinAddr: 0x10004FFF4, symSize: 0x34 }
  - { offset: 0x32406, size: 0x8, addend: 0x0, symName: __ZNSt3__16vectorI8ObstacleNS_9allocatorIS1_EEE7__allocB8ne180100Ev, symObjAddr: 0x4C33C, symBinAddr: 0x100050028, symSize: 0x28 }
  - { offset: 0x3242C, size: 0x8, addend: 0x0, symName: __ZNKSt3__16vectorI8ObstacleNS_9allocatorIS1_EEE8capacityB8ne180100Ev, symObjAddr: 0x4C364, symBinAddr: 0x100050050, symSize: 0xBC }
  - { offset: 0x32452, size: 0x8, addend: 0x0, symName: __ZNSt3__16vectorI8ObstacleNS_9allocatorIS1_EEE22__base_destruct_at_endB8ne180100EPS1_, symObjAddr: 0x4C420, symBinAddr: 0x10005010C, symSize: 0x114 }
  - { offset: 0x32496, size: 0x8, addend: 0x0, symName: __ZNSt3__116allocator_traitsINS_9allocatorI8ObstacleEEE7destroyB8ne180100IS2_vEEvRS3_PT_, symObjAddr: 0x4C534, symBinAddr: 0x100050220, symSize: 0x2C }
  - { offset: 0x324D3, size: 0x8, addend: 0x0, symName: __ZNSt3__19allocatorI8ObstacleE7destroyB8ne180100EPS1_, symObjAddr: 0x4C574, symBinAddr: 0x100050260, symSize: 0x28 }
  - { offset: 0x32507, size: 0x8, addend: 0x0, symName: __ZNKSt3__16vectorI8ObstacleNS_9allocatorIS1_EEE31__annotate_contiguous_containerB8ne180100EPKvS6_, symObjAddr: 0x4C59C, symBinAddr: 0x100050288, symSize: 0x94 }
  - { offset: 0x32569, size: 0x8, addend: 0x0, symName: __ZNKSt3__16vectorI8ObstacleNS_9allocatorIS1_EEE4dataB8ne180100Ev, symObjAddr: 0x4C630, symBinAddr: 0x10005031C, symSize: 0x64 }
  - { offset: 0x3258F, size: 0x8, addend: 0x0, symName: __ZNSt3__19allocatorI8ObstacleE10deallocateB8ne180100EPS1_m, symObjAddr: 0x4C694, symBinAddr: 0x100050380, symSize: 0x50 }
  - { offset: 0x325D1, size: 0x8, addend: 0x0, symName: __ZNSt3__117__compressed_pairIP8ObstacleNS_9allocatorIS1_EEE6secondB8ne180100Ev, symObjAddr: 0x4C6E4, symBinAddr: 0x1000503D0, symSize: 0x24 }
  - { offset: 0x325F7, size: 0x8, addend: 0x0, symName: __ZNSt3__122__compressed_pair_elemINS_9allocatorI8ObstacleEELi1ELb1EE5__getB8ne180100Ev, symObjAddr: 0x4C708, symBinAddr: 0x1000503F4, symSize: 0x14 }
  - { offset: 0x3261D, size: 0x8, addend: 0x0, symName: __ZNKSt3__16vectorI8ObstacleNS_9allocatorIS1_EEE9__end_capB8ne180100Ev, symObjAddr: 0x4C71C, symBinAddr: 0x100050408, symSize: 0x28 }
  - { offset: 0x32643, size: 0x8, addend: 0x0, symName: __ZNKSt3__117__compressed_pairIP8ObstacleNS_9allocatorIS1_EEE5firstB8ne180100Ev, symObjAddr: 0x4C744, symBinAddr: 0x100050430, symSize: 0x24 }
  - { offset: 0x32669, size: 0x8, addend: 0x0, symName: __ZNKSt3__122__compressed_pair_elemIP8ObstacleLi0ELb0EE5__getB8ne180100Ev, symObjAddr: 0x4C768, symBinAddr: 0x100050454, symSize: 0x14 }
  - { offset: 0x3268F, size: 0x8, addend: 0x0, symName: __ZNSt3__16vectorINS0_I6SommetNS_9allocatorIS1_EEEENS2_IS4_EEEC2B8ne180100Ev, symObjAddr: 0x4C77C, symBinAddr: 0x100050468, symSize: 0x324 }
  - { offset: 0x326BA, size: 0x8, addend: 0x0, symName: __ZNSt3__117__compressed_pairIPNS_6vectorI6SommetNS_9allocatorIS2_EEEENS3_IS5_EEEC1B8ne180100IDnNS_18__default_init_tagEEEOT_OT0_, symObjAddr: 0x4CAA0, symBinAddr: 0x10005078C, symSize: 0x3C }
  - { offset: 0x32712, size: 0x8, addend: 0x0, symName: __ZNSt3__117__compressed_pairIPNS_6vectorI6SommetNS_9allocatorIS2_EEEENS3_IS5_EEEC2B8ne180100IDnNS_18__default_init_tagEEEOT_OT0_, symObjAddr: 0x4CADC, symBinAddr: 0x1000507C8, symSize: 0x40 }
  - { offset: 0x3276A, size: 0x8, addend: 0x0, symName: __ZNSt3__122__compressed_pair_elemIPNS_6vectorI6SommetNS_9allocatorIS2_EEEELi0ELb0EEC2B8ne180100IDnvEEOT_, symObjAddr: 0x4CB1C, symBinAddr: 0x100050808, symSize: 0x64 }
  - { offset: 0x327AC, size: 0x8, addend: 0x0, symName: __ZNSt3__122__compressed_pair_elemINS_9allocatorINS_6vectorI6SommetNS1_IS3_EEEEEELi1ELb1EEC2B8ne180100ENS_18__default_init_tagE, symObjAddr: 0x4CB80, symBinAddr: 0x10005086C, symSize: 0x2C }
  - { offset: 0x327E0, size: 0x8, addend: 0x0, symName: __ZNSt3__19allocatorINS_6vectorI6SommetNS0_IS2_EEEEEC2B8ne180100Ev, symObjAddr: 0x4CBAC, symBinAddr: 0x100050898, symSize: 0x2C }
  - { offset: 0x3280A, size: 0x8, addend: 0x0, symName: __ZNSt3__116__non_trivial_ifILb1ENS_9allocatorINS_6vectorI6SommetNS1_IS3_EEEEEEEC2B8ne180100Ev, symObjAddr: 0x4CBD8, symBinAddr: 0x1000508C4, symSize: 0x14 }
  - { offset: 0x32834, size: 0x8, addend: 0x0, symName: __ZNSt3__16vectorINS0_I6SommetNS_9allocatorIS1_EEEENS2_IS4_EEED2B8ne180100Ev, symObjAddr: 0x4CBEC, symBinAddr: 0x1000508D8, symSize: 0x230 }
  - { offset: 0x3285F, size: 0x8, addend: 0x0, symName: __ZNSt3__16vectorINS0_I6SommetNS_9allocatorIS1_EEEENS2_IS4_EEE16__destroy_vectorC1B8ne180100ERS6_, symObjAddr: 0x4CE1C, symBinAddr: 0x100050B08, symSize: 0x34 }
  - { offset: 0x32898, size: 0x8, addend: 0x0, symName: __ZNSt3__16vectorINS0_I6SommetNS_9allocatorIS1_EEEENS2_IS4_EEE16__destroy_vectorclB8ne180100Ev, symObjAddr: 0x4CE50, symBinAddr: 0x100050B3C, symSize: 0x228 }
  - { offset: 0x328BE, size: 0x8, addend: 0x0, symName: __ZNSt3__16vectorINS0_I6SommetNS_9allocatorIS1_EEEENS2_IS4_EEE16__destroy_vectorC2B8ne180100ERS6_, symObjAddr: 0x4D078, symBinAddr: 0x100050D64, symSize: 0x70 }
  - { offset: 0x328F7, size: 0x8, addend: 0x0, symName: __ZNSt3__16vectorINS0_I6SommetNS_9allocatorIS1_EEEENS2_IS4_EEE7__clearB8ne180100Ev, symObjAddr: 0x4D0E8, symBinAddr: 0x100050DD4, symSize: 0x64 }
  - { offset: 0x3291D, size: 0x8, addend: 0x0, symName: __ZNKSt3__16vectorINS0_I6SommetNS_9allocatorIS1_EEEENS2_IS4_EEE17__annotate_deleteB8ne180100Ev, symObjAddr: 0x4D14C, symBinAddr: 0x100050E38, symSize: 0xA0 }
  - { offset: 0x32943, size: 0x8, addend: 0x0, symName: __ZNSt3__116allocator_traitsINS_9allocatorINS_6vectorI6SommetNS1_IS3_EEEEEEE10deallocateB8ne180100ERS6_PS5_m, symObjAddr: 0x4D1EC, symBinAddr: 0x100050ED8, symSize: 0x34 }
  - { offset: 0x32985, size: 0x8, addend: 0x0, symName: __ZNSt3__16vectorINS0_I6SommetNS_9allocatorIS1_EEEENS2_IS4_EEE7__allocB8ne180100Ev, symObjAddr: 0x4D220, symBinAddr: 0x100050F0C, symSize: 0x28 }
  - { offset: 0x329AB, size: 0x8, addend: 0x0, symName: __ZNKSt3__16vectorINS0_I6SommetNS_9allocatorIS1_EEEENS2_IS4_EEE8capacityB8ne180100Ev, symObjAddr: 0x4D248, symBinAddr: 0x100050F34, symSize: 0xBC }
  - { offset: 0x329D1, size: 0x8, addend: 0x0, symName: __ZNSt3__16vectorINS0_I6SommetNS_9allocatorIS1_EEEENS2_IS4_EEE22__base_destruct_at_endB8ne180100EPS4_, symObjAddr: 0x4D304, symBinAddr: 0x100050FF0, symSize: 0x114 }
  - { offset: 0x32A15, size: 0x8, addend: 0x0, symName: __ZNSt3__116allocator_traitsINS_9allocatorINS_6vectorI6SommetNS1_IS3_EEEEEEE7destroyB8ne180100IS5_vEEvRS6_PT_, symObjAddr: 0x4D418, symBinAddr: 0x100051104, symSize: 0x2C }
  - { offset: 0x32A52, size: 0x8, addend: 0x0, symName: __ZNSt3__19allocatorINS_6vectorI6SommetNS0_IS2_EEEEE7destroyB8ne180100EPS4_, symObjAddr: 0x4D458, symBinAddr: 0x100051144, symSize: 0x28 }
  - { offset: 0x32A86, size: 0x8, addend: 0x0, symName: __ZNKSt3__16vectorINS0_I6SommetNS_9allocatorIS1_EEEENS2_IS4_EEE31__annotate_contiguous_containerB8ne180100EPKvS8_, symObjAddr: 0x4D480, symBinAddr: 0x10005116C, symSize: 0x94 }
  - { offset: 0x32AE8, size: 0x8, addend: 0x0, symName: __ZNKSt3__16vectorINS0_I6SommetNS_9allocatorIS1_EEEENS2_IS4_EEE4dataB8ne180100Ev, symObjAddr: 0x4D514, symBinAddr: 0x100051200, symSize: 0x64 }
  - { offset: 0x32B0E, size: 0x8, addend: 0x0, symName: __ZNSt3__19allocatorINS_6vectorI6SommetNS0_IS2_EEEEE10deallocateB8ne180100EPS4_m, symObjAddr: 0x4D578, symBinAddr: 0x100051264, symSize: 0x50 }
  - { offset: 0x32B50, size: 0x8, addend: 0x0, symName: __ZNSt3__117__compressed_pairIPNS_6vectorI6SommetNS_9allocatorIS2_EEEENS3_IS5_EEE6secondB8ne180100Ev, symObjAddr: 0x4D5C8, symBinAddr: 0x1000512B4, symSize: 0x24 }
  - { offset: 0x32B76, size: 0x8, addend: 0x0, symName: __ZNSt3__122__compressed_pair_elemINS_9allocatorINS_6vectorI6SommetNS1_IS3_EEEEEELi1ELb1EE5__getB8ne180100Ev, symObjAddr: 0x4D5EC, symBinAddr: 0x1000512D8, symSize: 0x14 }
  - { offset: 0x32B9C, size: 0x8, addend: 0x0, symName: __ZNKSt3__16vectorINS0_I6SommetNS_9allocatorIS1_EEEENS2_IS4_EEE9__end_capB8ne180100Ev, symObjAddr: 0x4D600, symBinAddr: 0x1000512EC, symSize: 0x28 }
  - { offset: 0x32BC2, size: 0x8, addend: 0x0, symName: __ZNKSt3__117__compressed_pairIPNS_6vectorI6SommetNS_9allocatorIS2_EEEENS3_IS5_EEE5firstB8ne180100Ev, symObjAddr: 0x4D628, symBinAddr: 0x100051314, symSize: 0x24 }
  - { offset: 0x32BE8, size: 0x8, addend: 0x0, symName: __ZNKSt3__122__compressed_pair_elemIPNS_6vectorI6SommetNS_9allocatorIS2_EEEELi0ELb0EE5__getB8ne180100Ev, symObjAddr: 0x4D64C, symBinAddr: 0x100051338, symSize: 0x14 }
  - { offset: 0x32C0E, size: 0x8, addend: 0x0, symName: __ZNSt3__16vectorI6SommetNS_9allocatorIS1_EEE13__move_assignERS4_NS_17integral_constantIbLb1EEE, symObjAddr: 0x4D660, symBinAddr: 0x10005134C, symSize: 0x28C }
  - { offset: 0x32C50, size: 0x8, addend: 0x0, symName: __ZNSt3__16vectorI6SommetNS_9allocatorIS1_EEE13__vdeallocateEv, symObjAddr: 0x4D8EC, symBinAddr: 0x1000515D8, symSize: 0x194 }
  - { offset: 0x32C78, size: 0x8, addend: 0x0, symName: __ZNSt3__16vectorI6SommetNS_9allocatorIS1_EEE19__move_assign_allocB8ne180100ERS4_, symObjAddr: 0x4DA80, symBinAddr: 0x10005176C, symSize: 0x2C }
  - { offset: 0x32CAD, size: 0x8, addend: 0x0, symName: __ZNSt3__16vectorI6SommetNS_9allocatorIS1_EEE19__move_assign_allocB8ne180100ERS4_NS_17integral_constantIbLb1EEE, symObjAddr: 0x4DAAC, symBinAddr: 0x100051798, symSize: 0x38 }
  - { offset: 0x32CED, size: 0x8, addend: 0x0, symName: __ZNSt3__16vectorINS0_I6SommetNS_9allocatorIS1_EEEENS2_IS4_EEE11__make_iterB8ne180100EPS4_, symObjAddr: 0x4DAE4, symBinAddr: 0x1000517D0, symSize: 0x1F4 }
  - { offset: 0x32D24, size: 0x8, addend: 0x0, symName: __ZNSt3__111__wrap_iterIPNS_6vectorI6SommetNS_9allocatorIS2_EEEEEC1B8ne180100ES6_, symObjAddr: 0x4DCD8, symBinAddr: 0x1000519C4, symSize: 0x34 }
  - { offset: 0x32D5C, size: 0x8, addend: 0x0, symName: __ZNSt3__111__wrap_iterIPNS_6vectorI6SommetNS_9allocatorIS2_EEEEEC2B8ne180100ES6_, symObjAddr: 0x4DD0C, symBinAddr: 0x1000519F8, symSize: 0x70 }
  - { offset: 0x32D94, size: 0x8, addend: 0x0, symName: __ZNSt3__16vectorINS0_I6SommetNS_9allocatorIS1_EEEENS2_IS4_EEE9__end_capB8ne180100Ev, symObjAddr: 0x4DD7C, symBinAddr: 0x100051A68, symSize: 0x28 }
  - { offset: 0x32DBA, size: 0x8, addend: 0x0, symName: __ZNSt3__16vectorINS0_I6SommetNS_9allocatorIS1_EEEENS2_IS4_EEE22__construct_one_at_endB8ne180100IJRKS4_EEEvDpOT_, symObjAddr: 0x4DDA4, symBinAddr: 0x100051A90, symSize: 0x390 }
  - { offset: 0x32E0F, size: 0x8, addend: 0x0, symName: __ZNSt3__16vectorINS0_I6SommetNS_9allocatorIS1_EEEENS2_IS4_EEE21__push_back_slow_pathIRKS4_EEPS4_OT_, symObjAddr: 0x4E134, symBinAddr: 0x100051E20, symSize: 0x42C }
  - { offset: 0x32E74, size: 0x8, addend: 0x0, symName: __ZNSt3__117__compressed_pairIPNS_6vectorI6SommetNS_9allocatorIS2_EEEENS3_IS5_EEE5firstB8ne180100Ev, symObjAddr: 0x4E560, symBinAddr: 0x10005224C, symSize: 0x24 }
  - { offset: 0x32E9A, size: 0x8, addend: 0x0, symName: __ZNSt3__122__compressed_pair_elemIPNS_6vectorI6SommetNS_9allocatorIS2_EEEELi0ELb0EE5__getB8ne180100Ev, symObjAddr: 0x4E584, symBinAddr: 0x100052270, symSize: 0x14 }
  - { offset: 0x32EDC, size: 0x8, addend: 0x0, symName: __ZNSt3__16vectorINS0_I6SommetNS_9allocatorIS1_EEEENS2_IS4_EEE21_ConstructTransactionC1B8ne180100ERS6_m, symObjAddr: 0x4E598, symBinAddr: 0x100052284, symSize: 0x3C }
  - { offset: 0x32F24, size: 0x8, addend: 0x0, symName: __ZNSt3__116allocator_traitsINS_9allocatorINS_6vectorI6SommetNS1_IS3_EEEEEEE9constructB8ne180100IS5_JRKS5_EvEEvRS6_PT_DpOT0_, symObjAddr: 0x4E5D4, symBinAddr: 0x1000522C0, symSize: 0x34 }
  - { offset: 0x32F7B, size: 0x8, addend: 0x0, symName: __ZNSt3__16vectorINS0_I6SommetNS_9allocatorIS1_EEEENS2_IS4_EEE21_ConstructTransactionD1B8ne180100Ev, symObjAddr: 0x4E608, symBinAddr: 0x1000522F4, symSize: 0x2C }
  - { offset: 0x32FA5, size: 0x8, addend: 0x0, symName: __ZNSt3__16vectorINS0_I6SommetNS_9allocatorIS1_EEEENS2_IS4_EEE21_ConstructTransactionC2B8ne180100ERS6_m, symObjAddr: 0x4E634, symBinAddr: 0x100052320, symSize: 0x1D8 }
  - { offset: 0x32FED, size: 0x8, addend: 0x0, symName: __ZNKSt3__16vectorINS0_I6SommetNS_9allocatorIS1_EEEENS2_IS4_EEE19__annotate_increaseB8ne180100Em, symObjAddr: 0x4E80C, symBinAddr: 0x1000524F8, symSize: 0xB0 }
  - { offset: 0x33022, size: 0x8, addend: 0x0, symName: __ZNSt3__19allocatorINS_6vectorI6SommetNS0_IS2_EEEEE9constructB8ne180100IS4_JRKS4_EEEvPT_DpOT0_, symObjAddr: 0x4E8BC, symBinAddr: 0x1000525A8, symSize: 0x30 }
  - { offset: 0x33078, size: 0x8, addend: 0x0, symName: __ZNSt3__16vectorINS0_I6SommetNS_9allocatorIS1_EEEENS2_IS4_EEE21_ConstructTransactionD2B8ne180100Ev, symObjAddr: 0x4E8EC, symBinAddr: 0x1000525D8, symSize: 0x278 }
  - { offset: 0x330A2, size: 0x8, addend: 0x0, symName: __ZNKSt3__16vectorINS0_I6SommetNS_9allocatorIS1_EEEENS2_IS4_EEE17__annotate_shrinkB8ne180100Em, symObjAddr: 0x4EB64, symBinAddr: 0x100052850, symSize: 0x9C }
  - { offset: 0x330D7, size: 0x8, addend: 0x0, symName: __ZNKSt3__16vectorINS0_I6SommetNS_9allocatorIS1_EEEENS2_IS4_EEE11__recommendB8ne180100Em, symObjAddr: 0x4EC00, symBinAddr: 0x1000528EC, symSize: 0x374 }
  - { offset: 0x33133, size: 0x8, addend: 0x0, symName: __ZNSt3__114__split_bufferINS_6vectorI6SommetNS_9allocatorIS2_EEEERNS3_IS5_EEEC1EmmS7_, symObjAddr: 0x4EF74, symBinAddr: 0x100052C60, symSize: 0x44 }
  - { offset: 0x33189, size: 0x8, addend: 0x0, symName: __ZNSt3__114__split_bufferINS_6vectorI6SommetNS_9allocatorIS2_EEEERNS3_IS5_EEED1Ev, symObjAddr: 0x4F51C, symBinAddr: 0x100053208, symSize: 0x2C }
  - { offset: 0x331B5, size: 0x8, addend: 0x0, symName: __ZNKSt3__16vectorINS0_I6SommetNS_9allocatorIS1_EEEENS2_IS4_EEE8max_sizeEv, symObjAddr: 0x4F548, symBinAddr: 0x100053234, symSize: 0x338 }
  - { offset: 0x331DE, size: 0x8, addend: 0x0, symName: __ZNKSt3__16vectorINS0_I6SommetNS_9allocatorIS1_EEEENS2_IS4_EEE20__throw_length_errorB8ne180100Ev, symObjAddr: 0x4F880, symBinAddr: 0x10005356C, symSize: 0x20 }
  - { offset: 0x3320F, size: 0x8, addend: 0x0, symName: __ZNSt3__116allocator_traitsINS_9allocatorINS_6vectorI6SommetNS1_IS3_EEEEEEE8max_sizeB8ne180100IS6_vEEmRKS6_, symObjAddr: 0x4F8A0, symBinAddr: 0x10005358C, symSize: 0x24 }
  - { offset: 0x3323D, size: 0x8, addend: 0x0, symName: __ZNKSt3__16vectorINS0_I6SommetNS_9allocatorIS1_EEEENS2_IS4_EEE7__allocB8ne180100Ev, symObjAddr: 0x4F8C4, symBinAddr: 0x1000535B0, symSize: 0x28 }
  - { offset: 0x33263, size: 0x8, addend: 0x0, symName: __ZNKSt3__19allocatorINS_6vectorI6SommetNS0_IS2_EEEEE8max_sizeB8ne180100Ev, symObjAddr: 0x4F8EC, symBinAddr: 0x1000535D8, symSize: 0x18 }
  - { offset: 0x33289, size: 0x8, addend: 0x0, symName: __ZNKSt3__117__compressed_pairIPNS_6vectorI6SommetNS_9allocatorIS2_EEEENS3_IS5_EEE6secondB8ne180100Ev, symObjAddr: 0x4F904, symBinAddr: 0x1000535F0, symSize: 0x24 }
  - { offset: 0x332AF, size: 0x8, addend: 0x0, symName: __ZNKSt3__122__compressed_pair_elemINS_9allocatorINS_6vectorI6SommetNS1_IS3_EEEEEELi1ELb1EE5__getB8ne180100Ev, symObjAddr: 0x4F928, symBinAddr: 0x100053614, symSize: 0x14 }
  - { offset: 0x332D5, size: 0x8, addend: 0x0, symName: __ZNSt3__114__split_bufferINS_6vectorI6SommetNS_9allocatorIS2_EEEERNS3_IS5_EEEC2EmmS7_, symObjAddr: 0x4F93C, symBinAddr: 0x100053628, symSize: 0x520 }
  - { offset: 0x33350, size: 0x8, addend: 0x0, symName: __ZNSt3__117__compressed_pairIPNS_6vectorI6SommetNS_9allocatorIS2_EEEERNS3_IS5_EEEC1B8ne180100IDnS8_EEOT_OT0_, symObjAddr: 0x4FE5C, symBinAddr: 0x100053B48, symSize: 0x3C }
  - { offset: 0x333A8, size: 0x8, addend: 0x0, symName: __ZNSt3__114__split_bufferINS_6vectorI6SommetNS_9allocatorIS2_EEEERNS3_IS5_EEE7__allocB8ne180100Ev, symObjAddr: 0x5011C, symBinAddr: 0x100053E08, symSize: 0x28 }
  - { offset: 0x333CE, size: 0x8, addend: 0x0, symName: __ZNSt3__114__split_bufferINS_6vectorI6SommetNS_9allocatorIS2_EEEERNS3_IS5_EEE9__end_capB8ne180100Ev, symObjAddr: 0x50144, symBinAddr: 0x100053E30, symSize: 0x28 }
  - { offset: 0x333F4, size: 0x8, addend: 0x0, symName: __ZNSt3__117__compressed_pairIPNS_6vectorI6SommetNS_9allocatorIS2_EEEERNS3_IS5_EEEC2B8ne180100IDnS8_EEOT_OT0_, symObjAddr: 0x5016C, symBinAddr: 0x100053E58, symSize: 0x48 }
  - { offset: 0x3344C, size: 0x8, addend: 0x0, symName: __ZNSt3__122__compressed_pair_elemIRNS_9allocatorINS_6vectorI6SommetNS1_IS3_EEEEEELi1ELb0EEC2B8ne180100IS7_vEEOT_, symObjAddr: 0x501B4, symBinAddr: 0x100053EA0, symSize: 0x70 }
  - { offset: 0x3348E, size: 0x8, addend: 0x0, symName: __ZNSt3__19allocatorINS_6vectorI6SommetNS0_IS2_EEEEE8allocateB8ne180100Em, symObjAddr: 0x50224, symBinAddr: 0x100053F10, symSize: 0x60 }
  - { offset: 0x334C2, size: 0x8, addend: 0x0, symName: __ZNSt3__117__compressed_pairIPNS_6vectorI6SommetNS_9allocatorIS2_EEEERNS3_IS5_EEE6secondB8ne180100Ev, symObjAddr: 0x50284, symBinAddr: 0x100053F70, symSize: 0x28 }
  - { offset: 0x334E8, size: 0x8, addend: 0x0, symName: __ZNSt3__122__compressed_pair_elemIRNS_9allocatorINS_6vectorI6SommetNS1_IS3_EEEEEELi1ELb0EE5__getB8ne180100Ev, symObjAddr: 0x502AC, symBinAddr: 0x100053F98, symSize: 0x60 }
  - { offset: 0x3350E, size: 0x8, addend: 0x0, symName: __ZNSt3__117__compressed_pairIPNS_6vectorI6SommetNS_9allocatorIS2_EEEERNS3_IS5_EEE5firstB8ne180100Ev, symObjAddr: 0x5030C, symBinAddr: 0x100053FF8, symSize: 0x24 }
  - { offset: 0x33534, size: 0x8, addend: 0x0, symName: __ZNSt3__116reverse_iteratorIPNS_6vectorI6SommetNS_9allocatorIS2_EEEEEC1B8ne180100ES6_, symObjAddr: 0x508BC, symBinAddr: 0x1000545A8, symSize: 0x34 }
  - { offset: 0x3356C, size: 0x8, addend: 0x0, symName: __ZNKSt3__116reverse_iteratorIPNS_6vectorI6SommetNS_9allocatorIS2_EEEEE4baseB8ne180100Ev, symObjAddr: 0x508F0, symBinAddr: 0x1000545DC, symSize: 0x64 }
  - { offset: 0x33592, size: 0x8, addend: 0x0, symName: __ZNKSt3__16vectorINS0_I6SommetNS_9allocatorIS1_EEEENS2_IS4_EEE14__annotate_newB8ne180100Em, symObjAddr: 0x50A88, symBinAddr: 0x100054774, symSize: 0x94 }
  - { offset: 0x335C7, size: 0x8, addend: 0x0, symName: __ZNSt3__129_AllocatorDestroyRangeReverseINS_9allocatorINS_6vectorI6SommetNS1_IS3_EEEEEENS_16reverse_iteratorIPS5_EEEC1B8ne180100ERS6_RS9_SC_, symObjAddr: 0x50D04, symBinAddr: 0x1000549F0, symSize: 0x44 }
  - { offset: 0x3361E, size: 0x8, addend: 0x0, symName: __ZNSt3__116allocator_traitsINS_9allocatorINS_6vectorI6SommetNS1_IS3_EEEEEEE9constructB8ne180100IS5_JS5_EvEEvRS6_PT_DpOT0_, symObjAddr: 0x50D90, symBinAddr: 0x100054A7C, symSize: 0x34 }
  - { offset: 0x33675, size: 0x8, addend: 0x0, symName: __ZNKSt3__116reverse_iteratorIPNS_6vectorI6SommetNS_9allocatorIS2_EEEEEdeB8ne180100Ev, symObjAddr: 0x50DE8, symBinAddr: 0x100054AD4, symSize: 0x74 }
  - { offset: 0x336A9, size: 0x8, addend: 0x0, symName: __ZNSt3__116reverse_iteratorIPNS_6vectorI6SommetNS_9allocatorIS2_EEEEEppB8ne180100Ev, symObjAddr: 0x50E5C, symBinAddr: 0x100054B48, symSize: 0x6C }
  - { offset: 0x336CF, size: 0x8, addend: 0x0, symName: __ZNSt3__128__exception_guard_exceptionsINS_29_AllocatorDestroyRangeReverseINS_9allocatorINS_6vectorI6SommetNS2_IS4_EEEEEENS_16reverse_iteratorIPS6_EEEEE10__completeB8ne180100Ev, symObjAddr: 0x50EC8, symBinAddr: 0x100054BB4, symSize: 0x8C }
  - { offset: 0x336F5, size: 0x8, addend: 0x0, symName: __ZNSt3__128__exception_guard_exceptionsINS_29_AllocatorDestroyRangeReverseINS_9allocatorINS_6vectorI6SommetNS2_IS4_EEEEEENS_16reverse_iteratorIPS6_EEEEED1B8ne180100Ev, symObjAddr: 0x50F54, symBinAddr: 0x100054C40, symSize: 0x2C }
  - { offset: 0x3371F, size: 0x8, addend: 0x0, symName: __ZNSt3__128__exception_guard_exceptionsINS_29_AllocatorDestroyRangeReverseINS_9allocatorINS_6vectorI6SommetNS2_IS4_EEEEEENS_16reverse_iteratorIPS6_EEEEEC1B8ne180100ESB_, symObjAddr: 0x50F80, symBinAddr: 0x100054C6C, symSize: 0x34 }
  - { offset: 0x33758, size: 0x8, addend: 0x0, symName: __ZNSt3__128__exception_guard_exceptionsINS_29_AllocatorDestroyRangeReverseINS_9allocatorINS_6vectorI6SommetNS2_IS4_EEEEEENS_16reverse_iteratorIPS6_EEEEEC2B8ne180100ESB_, symObjAddr: 0x50FB4, symBinAddr: 0x100054CA0, symSize: 0xA4 }
  - { offset: 0x33791, size: 0x8, addend: 0x0, symName: __ZNSt3__129_AllocatorDestroyRangeReverseINS_9allocatorINS_6vectorI6SommetNS1_IS3_EEEEEENS_16reverse_iteratorIPS5_EEEC2B8ne180100ERS6_RS9_SC_, symObjAddr: 0x51058, symBinAddr: 0x100054D44, symSize: 0x104 }
  - { offset: 0x337E8, size: 0x8, addend: 0x0, symName: __ZNSt3__19allocatorINS_6vectorI6SommetNS0_IS2_EEEEE9constructB8ne180100IS4_JS4_EEEvPT_DpOT0_, symObjAddr: 0x5115C, symBinAddr: 0x100054E48, symSize: 0x30 }
  - { offset: 0x3383E, size: 0x8, addend: 0x0, symName: __ZNSt3__16vectorI6SommetNS_9allocatorIS1_EEEC1B8ne180100EOS4_, symObjAddr: 0x5118C, symBinAddr: 0x100054E78, symSize: 0x34 }
  - { offset: 0x33879, size: 0x8, addend: 0x0, symName: __ZNSt3__16vectorI6SommetNS_9allocatorIS1_EEEC2B8ne180100EOS4_, symObjAddr: 0x511C0, symBinAddr: 0x100054EAC, symSize: 0x55C }
  - { offset: 0x338BC, size: 0x8, addend: 0x0, symName: __ZNSt3__119__to_address_helperINS_16reverse_iteratorIPNS_6vectorI6SommetNS_9allocatorIS3_EEEEEEvE6__callB8ne180100ERKS8_, symObjAddr: 0x5171C, symBinAddr: 0x100055408, symSize: 0x44 }
  - { offset: 0x338DF, size: 0x8, addend: 0x0, symName: __ZNKSt3__116reverse_iteratorIPNS_6vectorI6SommetNS_9allocatorIS2_EEEEEptB8ne180100Ev, symObjAddr: 0x51760, symBinAddr: 0x10005544C, symSize: 0x24 }
  - { offset: 0x33905, size: 0x8, addend: 0x0, symName: __ZNSt3__128__exception_guard_exceptionsINS_29_AllocatorDestroyRangeReverseINS_9allocatorINS_6vectorI6SommetNS2_IS4_EEEEEENS_16reverse_iteratorIPS6_EEEEED2B8ne180100Ev, symObjAddr: 0x51784, symBinAddr: 0x100055470, symSize: 0xBC }
  - { offset: 0x3392F, size: 0x8, addend: 0x0, symName: __ZNKSt3__129_AllocatorDestroyRangeReverseINS_9allocatorINS_6vectorI6SommetNS1_IS3_EEEEEENS_16reverse_iteratorIPS5_EEEclB8ne180100Ev, symObjAddr: 0x51840, symBinAddr: 0x10005552C, symSize: 0x3A0 }
  - { offset: 0x33956, size: 0x8, addend: 0x0, symName: __ZNSt3__116reverse_iteratorINS0_IPNS_6vectorI6SommetNS_9allocatorIS2_EEEEEEEC1B8ne180100ES7_, symObjAddr: 0x51C50, symBinAddr: 0x10005593C, symSize: 0x240 }
  - { offset: 0x33993, size: 0x8, addend: 0x0, symName: __ZNSt3__116reverse_iteratorINS0_IPNS_6vectorI6SommetNS_9allocatorIS2_EEEEEEEppB8ne180100Ev, symObjAddr: 0x52170, symBinAddr: 0x100055E5C, symSize: 0x30 }
  - { offset: 0x339B9, size: 0x8, addend: 0x0, symName: __ZNKSt3__116reverse_iteratorINS0_IPNS_6vectorI6SommetNS_9allocatorIS2_EEEEEEE4baseB8ne180100Ev, symObjAddr: 0x521A0, symBinAddr: 0x100055E8C, symSize: 0x204 }
  - { offset: 0x339E6, size: 0x8, addend: 0x0, symName: __ZNSt3__119__to_address_helperINS_16reverse_iteratorINS1_IPNS_6vectorI6SommetNS_9allocatorIS3_EEEEEEEEvE6__callB8ne180100ERKS9_, symObjAddr: 0x523A4, symBinAddr: 0x100056090, symSize: 0x44 }
  - { offset: 0x33A09, size: 0x8, addend: 0x0, symName: __ZNKSt3__116reverse_iteratorINS0_IPNS_6vectorI6SommetNS_9allocatorIS2_EEEEEEEptB8ne180100Ev, symObjAddr: 0x523E8, symBinAddr: 0x1000560D4, symSize: 0x24 }
  - { offset: 0x33A2F, size: 0x8, addend: 0x0, symName: __ZNKSt3__116reverse_iteratorINS0_IPNS_6vectorI6SommetNS_9allocatorIS2_EEEEEEEdeB8ne180100Ev, symObjAddr: 0x5240C, symBinAddr: 0x1000560F8, symSize: 0x1E4 }
  - { offset: 0x33A68, size: 0x8, addend: 0x0, symName: __ZNSt3__116reverse_iteratorIPNS_6vectorI6SommetNS_9allocatorIS2_EEEEEmmB8ne180100Ev, symObjAddr: 0x525F0, symBinAddr: 0x1000562DC, symSize: 0x6C }
  - { offset: 0x33A8E, size: 0x8, addend: 0x0, symName: __ZNSt3__116reverse_iteratorINS0_IPNS_6vectorI6SommetNS_9allocatorIS2_EEEEEEEC2B8ne180100ES7_, symObjAddr: 0x5265C, symBinAddr: 0x100056348, symSize: 0x224 }
  - { offset: 0x33ACB, size: 0x8, addend: 0x0, symName: __ZNSt3__116reverse_iteratorIPNS_6vectorI6SommetNS_9allocatorIS2_EEEEEC2B8ne180100ES6_, symObjAddr: 0x52880, symBinAddr: 0x10005656C, symSize: 0xB8 }
  - { offset: 0x33B03, size: 0x8, addend: 0x0, symName: __ZNSt3__114__split_bufferINS_6vectorI6SommetNS_9allocatorIS2_EEEERNS3_IS5_EEED2Ev, symObjAddr: 0x52938, symBinAddr: 0x100056624, symSize: 0x104 }
  - { offset: 0x33B2F, size: 0x8, addend: 0x0, symName: __ZNSt3__114__split_bufferINS_6vectorI6SommetNS_9allocatorIS2_EEEERNS3_IS5_EEE5clearB8ne180100Ev, symObjAddr: 0x52A3C, symBinAddr: 0x100056728, symSize: 0x68 }
  - { offset: 0x33B55, size: 0x8, addend: 0x0, symName: __ZNKSt3__114__split_bufferINS_6vectorI6SommetNS_9allocatorIS2_EEEERNS3_IS5_EEE8capacityB8ne180100Ev, symObjAddr: 0x52AA4, symBinAddr: 0x100056790, symSize: 0xBC }
  - { offset: 0x33B7B, size: 0x8, addend: 0x0, symName: __ZNSt3__114__split_bufferINS_6vectorI6SommetNS_9allocatorIS2_EEEERNS3_IS5_EEE17__destruct_at_endB8ne180100EPS5_, symObjAddr: 0x52B60, symBinAddr: 0x10005684C, symSize: 0x2C }
  - { offset: 0x33BAF, size: 0x8, addend: 0x0, symName: __ZNSt3__114__split_bufferINS_6vectorI6SommetNS_9allocatorIS2_EEEERNS3_IS5_EEE17__destruct_at_endB8ne180100EPS5_NS_17integral_constantIbLb0EEE, symObjAddr: 0x52B8C, symBinAddr: 0x100056878, symSize: 0x10C }
  - { offset: 0x33BEF, size: 0x8, addend: 0x0, symName: __ZNKSt3__114__split_bufferINS_6vectorI6SommetNS_9allocatorIS2_EEEERNS3_IS5_EEE9__end_capB8ne180100Ev, symObjAddr: 0x52C98, symBinAddr: 0x100056984, symSize: 0x28 }
  - { offset: 0x33C15, size: 0x8, addend: 0x0, symName: __ZNKSt3__117__compressed_pairIPNS_6vectorI6SommetNS_9allocatorIS2_EEEERNS3_IS5_EEE5firstB8ne180100Ev, symObjAddr: 0x52CC0, symBinAddr: 0x1000569AC, symSize: 0x24 }
  - { offset: 0x33C3B, size: 0x8, addend: 0x0, symName: __ZNSt3__16vectorI8ObstacleNS_9allocatorIS1_EEE9__end_capB8ne180100Ev, symObjAddr: 0x52CE4, symBinAddr: 0x1000569D0, symSize: 0x28 }
  - { offset: 0x33C67, size: 0x8, addend: 0x0, symName: __ZNSt3__16vectorI8ObstacleNS_9allocatorIS1_EEE22__construct_one_at_endB8ne180100IJS1_EEEvDpOT_, symObjAddr: 0x52D0C, symBinAddr: 0x1000569F8, symSize: 0x390 }
  - { offset: 0x33CBC, size: 0x8, addend: 0x0, symName: __ZNSt3__16vectorI8ObstacleNS_9allocatorIS1_EEE21__push_back_slow_pathIS1_EEPS1_OT_, symObjAddr: 0x5309C, symBinAddr: 0x100056D88, symSize: 0x42C }
  - { offset: 0x33D21, size: 0x8, addend: 0x0, symName: __ZNSt3__117__compressed_pairIP8ObstacleNS_9allocatorIS1_EEE5firstB8ne180100Ev, symObjAddr: 0x534C8, symBinAddr: 0x1000571B4, symSize: 0x24 }
  - { offset: 0x33D47, size: 0x8, addend: 0x0, symName: __ZNSt3__122__compressed_pair_elemIP8ObstacleLi0ELb0EE5__getB8ne180100Ev, symObjAddr: 0x534EC, symBinAddr: 0x1000571D8, symSize: 0x14 }
  - { offset: 0x33D89, size: 0x8, addend: 0x0, symName: __ZNSt3__16vectorI8ObstacleNS_9allocatorIS1_EEE21_ConstructTransactionC1B8ne180100ERS4_m, symObjAddr: 0x53500, symBinAddr: 0x1000571EC, symSize: 0x3C }
  - { offset: 0x33DD1, size: 0x8, addend: 0x0, symName: __ZNSt3__116allocator_traitsINS_9allocatorI8ObstacleEEE9constructB8ne180100IS2_JS2_EvEEvRS3_PT_DpOT0_, symObjAddr: 0x5353C, symBinAddr: 0x100057228, symSize: 0x34 }
  - { offset: 0x33E28, size: 0x8, addend: 0x0, symName: __ZNSt3__16vectorI8ObstacleNS_9allocatorIS1_EEE21_ConstructTransactionD1B8ne180100Ev, symObjAddr: 0x53570, symBinAddr: 0x10005725C, symSize: 0x2C }
  - { offset: 0x33E52, size: 0x8, addend: 0x0, symName: __ZNSt3__16vectorI8ObstacleNS_9allocatorIS1_EEE21_ConstructTransactionC2B8ne180100ERS4_m, symObjAddr: 0x5359C, symBinAddr: 0x100057288, symSize: 0x1D8 }
  - { offset: 0x33E9A, size: 0x8, addend: 0x0, symName: __ZNKSt3__16vectorI8ObstacleNS_9allocatorIS1_EEE19__annotate_increaseB8ne180100Em, symObjAddr: 0x53774, symBinAddr: 0x100057460, symSize: 0xB0 }
  - { offset: 0x33ECF, size: 0x8, addend: 0x0, symName: __ZNSt3__19allocatorI8ObstacleE9constructB8ne180100IS1_JS1_EEEvPT_DpOT0_, symObjAddr: 0x53824, symBinAddr: 0x100057510, symSize: 0x30 }
  - { offset: 0x33F25, size: 0x8, addend: 0x0, symName: __ZN8ObstacleC1EOS_, symObjAddr: 0x53854, symBinAddr: 0x100057540, symSize: 0x34 }
  - { offset: 0x33F5A, size: 0x8, addend: 0x0, symName: __ZN8ObstacleC2EOS_, symObjAddr: 0x53888, symBinAddr: 0x100057574, symSize: 0x48 }
  - { offset: 0x33F8F, size: 0x8, addend: 0x0, symName: __ZNSt3__16vectorI8ObstacleNS_9allocatorIS1_EEE21_ConstructTransactionD2B8ne180100Ev, symObjAddr: 0x538D0, symBinAddr: 0x1000575BC, symSize: 0x278 }
  - { offset: 0x33FB9, size: 0x8, addend: 0x0, symName: __ZNKSt3__16vectorI8ObstacleNS_9allocatorIS1_EEE17__annotate_shrinkB8ne180100Em, symObjAddr: 0x53B48, symBinAddr: 0x100057834, symSize: 0x9C }
  - { offset: 0x33FEE, size: 0x8, addend: 0x0, symName: __ZNKSt3__16vectorI8ObstacleNS_9allocatorIS1_EEE11__recommendB8ne180100Em, symObjAddr: 0x53BE4, symBinAddr: 0x1000578D0, symSize: 0x374 }
  - { offset: 0x3404A, size: 0x8, addend: 0x0, symName: __ZNSt3__114__split_bufferI8ObstacleRNS_9allocatorIS1_EEEC1EmmS4_, symObjAddr: 0x53F58, symBinAddr: 0x100057C44, symSize: 0x44 }
  - { offset: 0x340A0, size: 0x8, addend: 0x0, symName: __ZNSt3__114__split_bufferI8ObstacleRNS_9allocatorIS1_EEED1Ev, symObjAddr: 0x54500, symBinAddr: 0x1000581EC, symSize: 0x2C }
  - { offset: 0x340CC, size: 0x8, addend: 0x0, symName: __ZNKSt3__16vectorI8ObstacleNS_9allocatorIS1_EEE8max_sizeEv, symObjAddr: 0x5452C, symBinAddr: 0x100058218, symSize: 0x338 }
  - { offset: 0x340F5, size: 0x8, addend: 0x0, symName: __ZNKSt3__16vectorI8ObstacleNS_9allocatorIS1_EEE20__throw_length_errorB8ne180100Ev, symObjAddr: 0x54864, symBinAddr: 0x100058550, symSize: 0x20 }
  - { offset: 0x34126, size: 0x8, addend: 0x0, symName: __ZNSt3__116allocator_traitsINS_9allocatorI8ObstacleEEE8max_sizeB8ne180100IS3_vEEmRKS3_, symObjAddr: 0x54884, symBinAddr: 0x100058570, symSize: 0x24 }
  - { offset: 0x34154, size: 0x8, addend: 0x0, symName: __ZNKSt3__16vectorI8ObstacleNS_9allocatorIS1_EEE7__allocB8ne180100Ev, symObjAddr: 0x548A8, symBinAddr: 0x100058594, symSize: 0x28 }
  - { offset: 0x3417A, size: 0x8, addend: 0x0, symName: __ZNKSt3__19allocatorI8ObstacleE8max_sizeB8ne180100Ev, symObjAddr: 0x548D0, symBinAddr: 0x1000585BC, symSize: 0x18 }
  - { offset: 0x341A0, size: 0x8, addend: 0x0, symName: __ZNKSt3__117__compressed_pairIP8ObstacleNS_9allocatorIS1_EEE6secondB8ne180100Ev, symObjAddr: 0x548E8, symBinAddr: 0x1000585D4, symSize: 0x24 }
  - { offset: 0x341C6, size: 0x8, addend: 0x0, symName: __ZNKSt3__122__compressed_pair_elemINS_9allocatorI8ObstacleEELi1ELb1EE5__getB8ne180100Ev, symObjAddr: 0x5490C, symBinAddr: 0x1000585F8, symSize: 0x14 }
  - { offset: 0x341EC, size: 0x8, addend: 0x0, symName: __ZNSt3__114__split_bufferI8ObstacleRNS_9allocatorIS1_EEEC2EmmS4_, symObjAddr: 0x54920, symBinAddr: 0x10005860C, symSize: 0x520 }
  - { offset: 0x34267, size: 0x8, addend: 0x0, symName: __ZNSt3__117__compressed_pairIP8ObstacleRNS_9allocatorIS1_EEEC1B8ne180100IDnS5_EEOT_OT0_, symObjAddr: 0x54E40, symBinAddr: 0x100058B2C, symSize: 0x3C }
  - { offset: 0x342BF, size: 0x8, addend: 0x0, symName: __ZNSt3__114__split_bufferI8ObstacleRNS_9allocatorIS1_EEE7__allocB8ne180100Ev, symObjAddr: 0x55100, symBinAddr: 0x100058DEC, symSize: 0x28 }
  - { offset: 0x342E5, size: 0x8, addend: 0x0, symName: __ZNSt3__114__split_bufferI8ObstacleRNS_9allocatorIS1_EEE9__end_capB8ne180100Ev, symObjAddr: 0x55128, symBinAddr: 0x100058E14, symSize: 0x28 }
  - { offset: 0x3430B, size: 0x8, addend: 0x0, symName: __ZNSt3__117__compressed_pairIP8ObstacleRNS_9allocatorIS1_EEEC2B8ne180100IDnS5_EEOT_OT0_, symObjAddr: 0x55150, symBinAddr: 0x100058E3C, symSize: 0x48 }
  - { offset: 0x34363, size: 0x8, addend: 0x0, symName: __ZNSt3__122__compressed_pair_elemIRNS_9allocatorI8ObstacleEELi1ELb0EEC2B8ne180100IS4_vEEOT_, symObjAddr: 0x55198, symBinAddr: 0x100058E84, symSize: 0x70 }
  - { offset: 0x343A5, size: 0x8, addend: 0x0, symName: __ZNSt3__19allocatorI8ObstacleE8allocateB8ne180100Em, symObjAddr: 0x55208, symBinAddr: 0x100058EF4, symSize: 0x60 }
  - { offset: 0x343D9, size: 0x8, addend: 0x0, symName: __ZNSt3__117__compressed_pairIP8ObstacleRNS_9allocatorIS1_EEE6secondB8ne180100Ev, symObjAddr: 0x55268, symBinAddr: 0x100058F54, symSize: 0x28 }
  - { offset: 0x343FF, size: 0x8, addend: 0x0, symName: __ZNSt3__122__compressed_pair_elemIRNS_9allocatorI8ObstacleEELi1ELb0EE5__getB8ne180100Ev, symObjAddr: 0x55290, symBinAddr: 0x100058F7C, symSize: 0x60 }
  - { offset: 0x34425, size: 0x8, addend: 0x0, symName: __ZNSt3__117__compressed_pairIP8ObstacleRNS_9allocatorIS1_EEE5firstB8ne180100Ev, symObjAddr: 0x552F0, symBinAddr: 0x100058FDC, symSize: 0x24 }
  - { offset: 0x3444B, size: 0x8, addend: 0x0, symName: __ZNSt3__116reverse_iteratorIP8ObstacleEC1B8ne180100ES2_, symObjAddr: 0x558A0, symBinAddr: 0x10005958C, symSize: 0x34 }
  - { offset: 0x34483, size: 0x8, addend: 0x0, symName: __ZNKSt3__116reverse_iteratorIP8ObstacleE4baseB8ne180100Ev, symObjAddr: 0x558D4, symBinAddr: 0x1000595C0, symSize: 0x64 }
  - { offset: 0x344A9, size: 0x8, addend: 0x0, symName: __ZNKSt3__16vectorI8ObstacleNS_9allocatorIS1_EEE14__annotate_newB8ne180100Em, symObjAddr: 0x55A6C, symBinAddr: 0x100059758, symSize: 0x94 }
  - { offset: 0x344DE, size: 0x8, addend: 0x0, symName: __ZNSt3__129_AllocatorDestroyRangeReverseINS_9allocatorI8ObstacleEENS_16reverse_iteratorIPS2_EEEC1B8ne180100ERS3_RS6_S9_, symObjAddr: 0x55CE8, symBinAddr: 0x1000599D4, symSize: 0x44 }
  - { offset: 0x34535, size: 0x8, addend: 0x0, symName: __ZNKSt3__116reverse_iteratorIP8ObstacleEdeB8ne180100Ev, symObjAddr: 0x55D98, symBinAddr: 0x100059A84, symSize: 0x74 }
  - { offset: 0x34569, size: 0x8, addend: 0x0, symName: __ZNSt3__116reverse_iteratorIP8ObstacleEppB8ne180100Ev, symObjAddr: 0x55E0C, symBinAddr: 0x100059AF8, symSize: 0x6C }
  - { offset: 0x3458F, size: 0x8, addend: 0x0, symName: __ZNSt3__128__exception_guard_exceptionsINS_29_AllocatorDestroyRangeReverseINS_9allocatorI8ObstacleEENS_16reverse_iteratorIPS3_EEEEE10__completeB8ne180100Ev, symObjAddr: 0x55E78, symBinAddr: 0x100059B64, symSize: 0x8C }
  - { offset: 0x345B5, size: 0x8, addend: 0x0, symName: __ZNSt3__128__exception_guard_exceptionsINS_29_AllocatorDestroyRangeReverseINS_9allocatorI8ObstacleEENS_16reverse_iteratorIPS3_EEEEED1B8ne180100Ev, symObjAddr: 0x55F04, symBinAddr: 0x100059BF0, symSize: 0x2C }
  - { offset: 0x345DF, size: 0x8, addend: 0x0, symName: __ZNSt3__128__exception_guard_exceptionsINS_29_AllocatorDestroyRangeReverseINS_9allocatorI8ObstacleEENS_16reverse_iteratorIPS3_EEEEEC1B8ne180100ES8_, symObjAddr: 0x55F30, symBinAddr: 0x100059C1C, symSize: 0x34 }
  - { offset: 0x34618, size: 0x8, addend: 0x0, symName: __ZNSt3__128__exception_guard_exceptionsINS_29_AllocatorDestroyRangeReverseINS_9allocatorI8ObstacleEENS_16reverse_iteratorIPS3_EEEEEC2B8ne180100ES8_, symObjAddr: 0x55F64, symBinAddr: 0x100059C50, symSize: 0xA4 }
  - { offset: 0x34651, size: 0x8, addend: 0x0, symName: __ZNSt3__129_AllocatorDestroyRangeReverseINS_9allocatorI8ObstacleEENS_16reverse_iteratorIPS2_EEEC2B8ne180100ERS3_RS6_S9_, symObjAddr: 0x56008, symBinAddr: 0x100059CF4, symSize: 0x104 }
  - { offset: 0x346AE, size: 0x8, addend: 0x0, symName: __ZNSt3__119__to_address_helperINS_16reverse_iteratorIP8ObstacleEEvE6__callB8ne180100ERKS4_, symObjAddr: 0x5610C, symBinAddr: 0x100059DF8, symSize: 0x44 }
  - { offset: 0x346D1, size: 0x8, addend: 0x0, symName: __ZNKSt3__116reverse_iteratorIP8ObstacleEptB8ne180100Ev, symObjAddr: 0x56150, symBinAddr: 0x100059E3C, symSize: 0x24 }
  - { offset: 0x346F7, size: 0x8, addend: 0x0, symName: __ZNSt3__128__exception_guard_exceptionsINS_29_AllocatorDestroyRangeReverseINS_9allocatorI8ObstacleEENS_16reverse_iteratorIPS3_EEEEED2B8ne180100Ev, symObjAddr: 0x56174, symBinAddr: 0x100059E60, symSize: 0xBC }
  - { offset: 0x34721, size: 0x8, addend: 0x0, symName: __ZNKSt3__129_AllocatorDestroyRangeReverseINS_9allocatorI8ObstacleEENS_16reverse_iteratorIPS2_EEEclB8ne180100Ev, symObjAddr: 0x56230, symBinAddr: 0x100059F1C, symSize: 0x3A0 }
  - { offset: 0x34748, size: 0x8, addend: 0x0, symName: __ZNSt3__116reverse_iteratorINS0_IP8ObstacleEEEC1B8ne180100ES3_, symObjAddr: 0x56640, symBinAddr: 0x10005A32C, symSize: 0x240 }
  - { offset: 0x34785, size: 0x8, addend: 0x0, symName: __ZNSt3__116reverse_iteratorINS0_IP8ObstacleEEEppB8ne180100Ev, symObjAddr: 0x56B60, symBinAddr: 0x10005A84C, symSize: 0x30 }
  - { offset: 0x347AB, size: 0x8, addend: 0x0, symName: __ZNKSt3__116reverse_iteratorINS0_IP8ObstacleEEE4baseB8ne180100Ev, symObjAddr: 0x56B90, symBinAddr: 0x10005A87C, symSize: 0x204 }
  - { offset: 0x347D8, size: 0x8, addend: 0x0, symName: __ZNSt3__119__to_address_helperINS_16reverse_iteratorINS1_IP8ObstacleEEEEvE6__callB8ne180100ERKS5_, symObjAddr: 0x56D94, symBinAddr: 0x10005AA80, symSize: 0x44 }
  - { offset: 0x347FB, size: 0x8, addend: 0x0, symName: __ZNKSt3__116reverse_iteratorINS0_IP8ObstacleEEEptB8ne180100Ev, symObjAddr: 0x56DD8, symBinAddr: 0x10005AAC4, symSize: 0x24 }
  - { offset: 0x34821, size: 0x8, addend: 0x0, symName: __ZNKSt3__116reverse_iteratorINS0_IP8ObstacleEEEdeB8ne180100Ev, symObjAddr: 0x56DFC, symBinAddr: 0x10005AAE8, symSize: 0x1E4 }
  - { offset: 0x3485A, size: 0x8, addend: 0x0, symName: __ZNSt3__116reverse_iteratorIP8ObstacleEmmB8ne180100Ev, symObjAddr: 0x56FE0, symBinAddr: 0x10005ACCC, symSize: 0x6C }
  - { offset: 0x34880, size: 0x8, addend: 0x0, symName: __ZNSt3__116reverse_iteratorINS0_IP8ObstacleEEEC2B8ne180100ES3_, symObjAddr: 0x5704C, symBinAddr: 0x10005AD38, symSize: 0x224 }
  - { offset: 0x348BD, size: 0x8, addend: 0x0, symName: __ZNSt3__116reverse_iteratorIP8ObstacleEC2B8ne180100ES2_, symObjAddr: 0x57270, symBinAddr: 0x10005AF5C, symSize: 0xB8 }
  - { offset: 0x348F5, size: 0x8, addend: 0x0, symName: __ZNSt3__114__split_bufferI8ObstacleRNS_9allocatorIS1_EEED2Ev, symObjAddr: 0x57328, symBinAddr: 0x10005B014, symSize: 0x104 }
  - { offset: 0x34921, size: 0x8, addend: 0x0, symName: __ZNSt3__114__split_bufferI8ObstacleRNS_9allocatorIS1_EEE5clearB8ne180100Ev, symObjAddr: 0x5742C, symBinAddr: 0x10005B118, symSize: 0x68 }
  - { offset: 0x34947, size: 0x8, addend: 0x0, symName: __ZNKSt3__114__split_bufferI8ObstacleRNS_9allocatorIS1_EEE8capacityB8ne180100Ev, symObjAddr: 0x57494, symBinAddr: 0x10005B180, symSize: 0xBC }
  - { offset: 0x3496D, size: 0x8, addend: 0x0, symName: __ZNSt3__114__split_bufferI8ObstacleRNS_9allocatorIS1_EEE17__destruct_at_endB8ne180100EPS1_, symObjAddr: 0x57550, symBinAddr: 0x10005B23C, symSize: 0x2C }
  - { offset: 0x349A1, size: 0x8, addend: 0x0, symName: __ZNSt3__114__split_bufferI8ObstacleRNS_9allocatorIS1_EEE17__destruct_at_endB8ne180100EPS1_NS_17integral_constantIbLb0EEE, symObjAddr: 0x5757C, symBinAddr: 0x10005B268, symSize: 0x10C }
  - { offset: 0x349E1, size: 0x8, addend: 0x0, symName: __ZNKSt3__114__split_bufferI8ObstacleRNS_9allocatorIS1_EEE9__end_capB8ne180100Ev, symObjAddr: 0x57688, symBinAddr: 0x10005B374, symSize: 0x28 }
  - { offset: 0x34A07, size: 0x8, addend: 0x0, symName: __ZNKSt3__117__compressed_pairIP8ObstacleRNS_9allocatorIS1_EEE5firstB8ne180100Ev, symObjAddr: 0x576B0, symBinAddr: 0x10005B39C, symSize: 0x24 }
  - { offset: 0x34A2D, size: 0x8, addend: 0x0, symName: __ZNSt3__16vectorINS_4pairI8ObstacleiEENS_9allocatorIS3_EEEC2B8ne180100Ev, symObjAddr: 0x576D4, symBinAddr: 0x10005B3C0, symSize: 0x324 }
  - { offset: 0x34A58, size: 0x8, addend: 0x0, symName: __ZNSt3__117__compressed_pairIPNS_4pairI8ObstacleiEENS_9allocatorIS3_EEEC1B8ne180100IDnNS_18__default_init_tagEEEOT_OT0_, symObjAddr: 0x579F8, symBinAddr: 0x10005B6E4, symSize: 0x3C }
  - { offset: 0x34AB0, size: 0x8, addend: 0x0, symName: __ZNSt3__117__compressed_pairIPNS_4pairI8ObstacleiEENS_9allocatorIS3_EEEC2B8ne180100IDnNS_18__default_init_tagEEEOT_OT0_, symObjAddr: 0x57A34, symBinAddr: 0x10005B720, symSize: 0x40 }
  - { offset: 0x34B08, size: 0x8, addend: 0x0, symName: __ZNSt3__122__compressed_pair_elemIPNS_4pairI8ObstacleiEELi0ELb0EEC2B8ne180100IDnvEEOT_, symObjAddr: 0x57A74, symBinAddr: 0x10005B760, symSize: 0x64 }
  - { offset: 0x34B4A, size: 0x8, addend: 0x0, symName: __ZNSt3__122__compressed_pair_elemINS_9allocatorINS_4pairI8ObstacleiEEEELi1ELb1EEC2B8ne180100ENS_18__default_init_tagE, symObjAddr: 0x57AD8, symBinAddr: 0x10005B7C4, symSize: 0x2C }
  - { offset: 0x34B7E, size: 0x8, addend: 0x0, symName: __ZNSt3__19allocatorINS_4pairI8ObstacleiEEEC2B8ne180100Ev, symObjAddr: 0x57B04, symBinAddr: 0x10005B7F0, symSize: 0x2C }
  - { offset: 0x34BA8, size: 0x8, addend: 0x0, symName: __ZNSt3__116__non_trivial_ifILb1ENS_9allocatorINS_4pairI8ObstacleiEEEEEC2B8ne180100Ev, symObjAddr: 0x57B30, symBinAddr: 0x10005B81C, symSize: 0x14 }
  - { offset: 0x34BD2, size: 0x8, addend: 0x0, symName: __ZNSt3__16vectorINS_4pairI8ObstacleiEENS_9allocatorIS3_EEED2B8ne180100Ev, symObjAddr: 0x57B44, symBinAddr: 0x10005B830, symSize: 0x230 }
  - { offset: 0x34BFD, size: 0x8, addend: 0x0, symName: __ZNSt3__16vectorINS_4pairI8ObstacleiEENS_9allocatorIS3_EEE16__destroy_vectorC1B8ne180100ERS6_, symObjAddr: 0x57D74, symBinAddr: 0x10005BA60, symSize: 0x34 }
  - { offset: 0x34C36, size: 0x8, addend: 0x0, symName: __ZNSt3__16vectorINS_4pairI8ObstacleiEENS_9allocatorIS3_EEE16__destroy_vectorclB8ne180100Ev, symObjAddr: 0x57DA8, symBinAddr: 0x10005BA94, symSize: 0x228 }
  - { offset: 0x34C5C, size: 0x8, addend: 0x0, symName: __ZNSt3__16vectorINS_4pairI8ObstacleiEENS_9allocatorIS3_EEE16__destroy_vectorC2B8ne180100ERS6_, symObjAddr: 0x57FD0, symBinAddr: 0x10005BCBC, symSize: 0x70 }
  - { offset: 0x34C95, size: 0x8, addend: 0x0, symName: __ZNSt3__16vectorINS_4pairI8ObstacleiEENS_9allocatorIS3_EEE7__clearB8ne180100Ev, symObjAddr: 0x58040, symBinAddr: 0x10005BD2C, symSize: 0x64 }
  - { offset: 0x34CBB, size: 0x8, addend: 0x0, symName: __ZNKSt3__16vectorINS_4pairI8ObstacleiEENS_9allocatorIS3_EEE17__annotate_deleteB8ne180100Ev, symObjAddr: 0x580A4, symBinAddr: 0x10005BD90, symSize: 0xA0 }
  - { offset: 0x34CE1, size: 0x8, addend: 0x0, symName: __ZNSt3__116allocator_traitsINS_9allocatorINS_4pairI8ObstacleiEEEEE10deallocateB8ne180100ERS5_PS4_m, symObjAddr: 0x58144, symBinAddr: 0x10005BE30, symSize: 0x34 }
  - { offset: 0x34D23, size: 0x8, addend: 0x0, symName: __ZNSt3__16vectorINS_4pairI8ObstacleiEENS_9allocatorIS3_EEE7__allocB8ne180100Ev, symObjAddr: 0x58178, symBinAddr: 0x10005BE64, symSize: 0x28 }
  - { offset: 0x34D49, size: 0x8, addend: 0x0, symName: __ZNKSt3__16vectorINS_4pairI8ObstacleiEENS_9allocatorIS3_EEE8capacityB8ne180100Ev, symObjAddr: 0x581A0, symBinAddr: 0x10005BE8C, symSize: 0xBC }
  - { offset: 0x34D6F, size: 0x8, addend: 0x0, symName: __ZNSt3__16vectorINS_4pairI8ObstacleiEENS_9allocatorIS3_EEE22__base_destruct_at_endB8ne180100EPS3_, symObjAddr: 0x5825C, symBinAddr: 0x10005BF48, symSize: 0x114 }
  - { offset: 0x34DB3, size: 0x8, addend: 0x0, symName: __ZNSt3__116allocator_traitsINS_9allocatorINS_4pairI8ObstacleiEEEEE7destroyB8ne180100IS4_vEEvRS5_PT_, symObjAddr: 0x58370, symBinAddr: 0x10005C05C, symSize: 0x2C }
  - { offset: 0x34DF0, size: 0x8, addend: 0x0, symName: __ZNSt3__19allocatorINS_4pairI8ObstacleiEEE7destroyB8ne180100EPS3_, symObjAddr: 0x583B0, symBinAddr: 0x10005C09C, symSize: 0x28 }
  - { offset: 0x34E24, size: 0x8, addend: 0x0, symName: __ZNKSt3__16vectorINS_4pairI8ObstacleiEENS_9allocatorIS3_EEE31__annotate_contiguous_containerB8ne180100EPKvS8_, symObjAddr: 0x583D8, symBinAddr: 0x10005C0C4, symSize: 0x94 }
  - { offset: 0x34E86, size: 0x8, addend: 0x0, symName: __ZNKSt3__16vectorINS_4pairI8ObstacleiEENS_9allocatorIS3_EEE4dataB8ne180100Ev, symObjAddr: 0x5846C, symBinAddr: 0x10005C158, symSize: 0x64 }
  - { offset: 0x34EAC, size: 0x8, addend: 0x0, symName: __ZNKSt3__16vectorINS_4pairI8ObstacleiEENS_9allocatorIS3_EEE4sizeB8ne180100Ev, symObjAddr: 0x584D0, symBinAddr: 0x10005C1BC, symSize: 0xB0 }
  - { offset: 0x34ED2, size: 0x8, addend: 0x0, symName: __ZNSt3__19allocatorINS_4pairI8ObstacleiEEE10deallocateB8ne180100EPS3_m, symObjAddr: 0x58580, symBinAddr: 0x10005C26C, symSize: 0x50 }
  - { offset: 0x34F14, size: 0x8, addend: 0x0, symName: __ZNSt3__117__compressed_pairIPNS_4pairI8ObstacleiEENS_9allocatorIS3_EEE6secondB8ne180100Ev, symObjAddr: 0x585D0, symBinAddr: 0x10005C2BC, symSize: 0x24 }
  - { offset: 0x34F3A, size: 0x8, addend: 0x0, symName: __ZNSt3__122__compressed_pair_elemINS_9allocatorINS_4pairI8ObstacleiEEEELi1ELb1EE5__getB8ne180100Ev, symObjAddr: 0x585F4, symBinAddr: 0x10005C2E0, symSize: 0x14 }
  - { offset: 0x34F60, size: 0x8, addend: 0x0, symName: __ZNKSt3__16vectorINS_4pairI8ObstacleiEENS_9allocatorIS3_EEE9__end_capB8ne180100Ev, symObjAddr: 0x58608, symBinAddr: 0x10005C2F4, symSize: 0x28 }
  - { offset: 0x34F86, size: 0x8, addend: 0x0, symName: __ZNKSt3__117__compressed_pairIPNS_4pairI8ObstacleiEENS_9allocatorIS3_EEE5firstB8ne180100Ev, symObjAddr: 0x58630, symBinAddr: 0x10005C31C, symSize: 0x24 }
  - { offset: 0x34FAC, size: 0x8, addend: 0x0, symName: __ZNKSt3__122__compressed_pair_elemIPNS_4pairI8ObstacleiEELi0ELb0EE5__getB8ne180100Ev, symObjAddr: 0x58654, symBinAddr: 0x10005C340, symSize: 0x14 }
  - { offset: 0x34FD2, size: 0x8, addend: 0x0, symName: __ZNSt3__16vectorINS_4pairI8ObstacleiEENS_9allocatorIS3_EEE9__end_capB8ne180100Ev, symObjAddr: 0x58668, symBinAddr: 0x10005C354, symSize: 0x28 }
  - { offset: 0x34FF8, size: 0x8, addend: 0x0, symName: __ZNSt3__16vectorINS_4pairI8ObstacleiEENS_9allocatorIS3_EEE22__construct_one_at_endB8ne180100IJS3_EEEvDpOT_, symObjAddr: 0x58690, symBinAddr: 0x10005C37C, symSize: 0x390 }
  - { offset: 0x3504D, size: 0x8, addend: 0x0, symName: __ZNSt3__16vectorINS_4pairI8ObstacleiEENS_9allocatorIS3_EEE21__push_back_slow_pathIS3_EEPS3_OT_, symObjAddr: 0x58A20, symBinAddr: 0x10005C70C, symSize: 0x42C }
  - { offset: 0x350B2, size: 0x8, addend: 0x0, symName: __ZNSt3__117__compressed_pairIPNS_4pairI8ObstacleiEENS_9allocatorIS3_EEE5firstB8ne180100Ev, symObjAddr: 0x58E4C, symBinAddr: 0x10005CB38, symSize: 0x24 }
  - { offset: 0x350D8, size: 0x8, addend: 0x0, symName: __ZNSt3__122__compressed_pair_elemIPNS_4pairI8ObstacleiEELi0ELb0EE5__getB8ne180100Ev, symObjAddr: 0x58E70, symBinAddr: 0x10005CB5C, symSize: 0x14 }
  - { offset: 0x3511A, size: 0x8, addend: 0x0, symName: __ZNSt3__16vectorINS_4pairI8ObstacleiEENS_9allocatorIS3_EEE21_ConstructTransactionC1B8ne180100ERS6_m, symObjAddr: 0x58E84, symBinAddr: 0x10005CB70, symSize: 0x3C }
  - { offset: 0x35162, size: 0x8, addend: 0x0, symName: __ZNSt3__116allocator_traitsINS_9allocatorINS_4pairI8ObstacleiEEEEE9constructB8ne180100IS4_JS4_EvEEvRS5_PT_DpOT0_, symObjAddr: 0x58EC0, symBinAddr: 0x10005CBAC, symSize: 0x34 }
  - { offset: 0x351B9, size: 0x8, addend: 0x0, symName: __ZNSt3__16vectorINS_4pairI8ObstacleiEENS_9allocatorIS3_EEE21_ConstructTransactionD1B8ne180100Ev, symObjAddr: 0x58EF4, symBinAddr: 0x10005CBE0, symSize: 0x2C }
  - { offset: 0x351E3, size: 0x8, addend: 0x0, symName: __ZNSt3__16vectorINS_4pairI8ObstacleiEENS_9allocatorIS3_EEE21_ConstructTransactionC2B8ne180100ERS6_m, symObjAddr: 0x58F20, symBinAddr: 0x10005CC0C, symSize: 0x1D8 }
  - { offset: 0x3522B, size: 0x8, addend: 0x0, symName: __ZNKSt3__16vectorINS_4pairI8ObstacleiEENS_9allocatorIS3_EEE19__annotate_increaseB8ne180100Em, symObjAddr: 0x590F8, symBinAddr: 0x10005CDE4, symSize: 0xB0 }
  - { offset: 0x35260, size: 0x8, addend: 0x0, symName: __ZNSt3__19allocatorINS_4pairI8ObstacleiEEE9constructB8ne180100IS3_JS3_EEEvPT_DpOT0_, symObjAddr: 0x591A8, symBinAddr: 0x10005CE94, symSize: 0x30 }
  - { offset: 0x352B6, size: 0x8, addend: 0x0, symName: __ZNSt3__14pairI8ObstacleiEC1B8ne180100EOS2_, symObjAddr: 0x591D8, symBinAddr: 0x10005CEC4, symSize: 0x34 }
  - { offset: 0x352EA, size: 0x8, addend: 0x0, symName: __ZNSt3__14pairI8ObstacleiEC2B8ne180100EOS2_, symObjAddr: 0x5920C, symBinAddr: 0x10005CEF8, symSize: 0x114 }
  - { offset: 0x3531E, size: 0x8, addend: 0x0, symName: __ZNSt3__16vectorINS_4pairI8ObstacleiEENS_9allocatorIS3_EEE21_ConstructTransactionD2B8ne180100Ev, symObjAddr: 0x59320, symBinAddr: 0x10005D00C, symSize: 0x278 }
  - { offset: 0x35348, size: 0x8, addend: 0x0, symName: __ZNKSt3__16vectorINS_4pairI8ObstacleiEENS_9allocatorIS3_EEE17__annotate_shrinkB8ne180100Em, symObjAddr: 0x59598, symBinAddr: 0x10005D284, symSize: 0x9C }
  - { offset: 0x3537D, size: 0x8, addend: 0x0, symName: __ZNKSt3__16vectorINS_4pairI8ObstacleiEENS_9allocatorIS3_EEE11__recommendB8ne180100Em, symObjAddr: 0x59634, symBinAddr: 0x10005D320, symSize: 0x374 }
  - { offset: 0x353D9, size: 0x8, addend: 0x0, symName: __ZNSt3__114__split_bufferINS_4pairI8ObstacleiEERNS_9allocatorIS3_EEEC1EmmS6_, symObjAddr: 0x599A8, symBinAddr: 0x10005D694, symSize: 0x44 }
  - { offset: 0x3542F, size: 0x8, addend: 0x0, symName: __ZNSt3__114__split_bufferINS_4pairI8ObstacleiEERNS_9allocatorIS3_EEED1Ev, symObjAddr: 0x59F50, symBinAddr: 0x10005DC3C, symSize: 0x2C }
  - { offset: 0x3545B, size: 0x8, addend: 0x0, symName: __ZNKSt3__16vectorINS_4pairI8ObstacleiEENS_9allocatorIS3_EEE8max_sizeEv, symObjAddr: 0x59F7C, symBinAddr: 0x10005DC68, symSize: 0x338 }
  - { offset: 0x35484, size: 0x8, addend: 0x0, symName: __ZNKSt3__16vectorINS_4pairI8ObstacleiEENS_9allocatorIS3_EEE20__throw_length_errorB8ne180100Ev, symObjAddr: 0x5A2B4, symBinAddr: 0x10005DFA0, symSize: 0x20 }
  - { offset: 0x354B5, size: 0x8, addend: 0x0, symName: __ZNSt3__116allocator_traitsINS_9allocatorINS_4pairI8ObstacleiEEEEE8max_sizeB8ne180100IS5_vEEmRKS5_, symObjAddr: 0x5A2D4, symBinAddr: 0x10005DFC0, symSize: 0x24 }
  - { offset: 0x354E3, size: 0x8, addend: 0x0, symName: __ZNKSt3__16vectorINS_4pairI8ObstacleiEENS_9allocatorIS3_EEE7__allocB8ne180100Ev, symObjAddr: 0x5A2F8, symBinAddr: 0x10005DFE4, symSize: 0x28 }
  - { offset: 0x35509, size: 0x8, addend: 0x0, symName: __ZNKSt3__19allocatorINS_4pairI8ObstacleiEEE8max_sizeB8ne180100Ev, symObjAddr: 0x5A320, symBinAddr: 0x10005E00C, symSize: 0x20 }
  - { offset: 0x3552F, size: 0x8, addend: 0x0, symName: __ZNKSt3__117__compressed_pairIPNS_4pairI8ObstacleiEENS_9allocatorIS3_EEE6secondB8ne180100Ev, symObjAddr: 0x5A340, symBinAddr: 0x10005E02C, symSize: 0x24 }
  - { offset: 0x35555, size: 0x8, addend: 0x0, symName: __ZNKSt3__122__compressed_pair_elemINS_9allocatorINS_4pairI8ObstacleiEEEELi1ELb1EE5__getB8ne180100Ev, symObjAddr: 0x5A364, symBinAddr: 0x10005E050, symSize: 0x14 }
  - { offset: 0x3557B, size: 0x8, addend: 0x0, symName: __ZNSt3__114__split_bufferINS_4pairI8ObstacleiEERNS_9allocatorIS3_EEEC2EmmS6_, symObjAddr: 0x5A378, symBinAddr: 0x10005E064, symSize: 0x520 }
  - { offset: 0x355F6, size: 0x8, addend: 0x0, symName: __ZNSt3__117__compressed_pairIPNS_4pairI8ObstacleiEERNS_9allocatorIS3_EEEC1B8ne180100IDnS7_EEOT_OT0_, symObjAddr: 0x5A898, symBinAddr: 0x10005E584, symSize: 0x3C }
  - { offset: 0x3564E, size: 0x8, addend: 0x0, symName: __ZNSt3__114__split_bufferINS_4pairI8ObstacleiEERNS_9allocatorIS3_EEE7__allocB8ne180100Ev, symObjAddr: 0x5AB58, symBinAddr: 0x10005E844, symSize: 0x28 }
  - { offset: 0x35674, size: 0x8, addend: 0x0, symName: __ZNSt3__114__split_bufferINS_4pairI8ObstacleiEERNS_9allocatorIS3_EEE9__end_capB8ne180100Ev, symObjAddr: 0x5AB80, symBinAddr: 0x10005E86C, symSize: 0x28 }
  - { offset: 0x3569A, size: 0x8, addend: 0x0, symName: __ZNSt3__117__compressed_pairIPNS_4pairI8ObstacleiEERNS_9allocatorIS3_EEEC2B8ne180100IDnS7_EEOT_OT0_, symObjAddr: 0x5ABA8, symBinAddr: 0x10005E894, symSize: 0x48 }
  - { offset: 0x356F2, size: 0x8, addend: 0x0, symName: __ZNSt3__122__compressed_pair_elemIRNS_9allocatorINS_4pairI8ObstacleiEEEELi1ELb0EEC2B8ne180100IS6_vEEOT_, symObjAddr: 0x5ABF0, symBinAddr: 0x10005E8DC, symSize: 0x70 }
  - { offset: 0x35734, size: 0x8, addend: 0x0, symName: __ZNSt3__19allocatorINS_4pairI8ObstacleiEEE8allocateB8ne180100Em, symObjAddr: 0x5AC60, symBinAddr: 0x10005E94C, symSize: 0x60 }
  - { offset: 0x35768, size: 0x8, addend: 0x0, symName: __ZNSt3__117__compressed_pairIPNS_4pairI8ObstacleiEERNS_9allocatorIS3_EEE6secondB8ne180100Ev, symObjAddr: 0x5ACC0, symBinAddr: 0x10005E9AC, symSize: 0x28 }
  - { offset: 0x3578E, size: 0x8, addend: 0x0, symName: __ZNSt3__122__compressed_pair_elemIRNS_9allocatorINS_4pairI8ObstacleiEEEELi1ELb0EE5__getB8ne180100Ev, symObjAddr: 0x5ACE8, symBinAddr: 0x10005E9D4, symSize: 0x60 }
  - { offset: 0x357B4, size: 0x8, addend: 0x0, symName: __ZNSt3__117__compressed_pairIPNS_4pairI8ObstacleiEERNS_9allocatorIS3_EEE5firstB8ne180100Ev, symObjAddr: 0x5AD48, symBinAddr: 0x10005EA34, symSize: 0x24 }
  - { offset: 0x357DA, size: 0x8, addend: 0x0, symName: __ZNSt3__116reverse_iteratorIPNS_4pairI8ObstacleiEEEC1B8ne180100ES4_, symObjAddr: 0x5B2F8, symBinAddr: 0x10005EFE4, symSize: 0x34 }
  - { offset: 0x35812, size: 0x8, addend: 0x0, symName: __ZNKSt3__116reverse_iteratorIPNS_4pairI8ObstacleiEEE4baseB8ne180100Ev, symObjAddr: 0x5B32C, symBinAddr: 0x10005F018, symSize: 0x64 }
  - { offset: 0x35838, size: 0x8, addend: 0x0, symName: __ZNKSt3__16vectorINS_4pairI8ObstacleiEENS_9allocatorIS3_EEE14__annotate_newB8ne180100Em, symObjAddr: 0x5B4C4, symBinAddr: 0x10005F1B0, symSize: 0x94 }
  - { offset: 0x3586D, size: 0x8, addend: 0x0, symName: __ZNSt3__129_AllocatorDestroyRangeReverseINS_9allocatorINS_4pairI8ObstacleiEEEENS_16reverse_iteratorIPS4_EEEC1B8ne180100ERS5_RS8_SB_, symObjAddr: 0x5B740, symBinAddr: 0x10005F42C, symSize: 0x44 }
  - { offset: 0x358C4, size: 0x8, addend: 0x0, symName: __ZNKSt3__116reverse_iteratorIPNS_4pairI8ObstacleiEEEdeB8ne180100Ev, symObjAddr: 0x5B7F0, symBinAddr: 0x10005F4DC, symSize: 0x74 }
  - { offset: 0x358F8, size: 0x8, addend: 0x0, symName: __ZNSt3__116reverse_iteratorIPNS_4pairI8ObstacleiEEEppB8ne180100Ev, symObjAddr: 0x5B864, symBinAddr: 0x10005F550, symSize: 0x6C }
  - { offset: 0x3591E, size: 0x8, addend: 0x0, symName: __ZNSt3__128__exception_guard_exceptionsINS_29_AllocatorDestroyRangeReverseINS_9allocatorINS_4pairI8ObstacleiEEEENS_16reverse_iteratorIPS5_EEEEE10__completeB8ne180100Ev, symObjAddr: 0x5B8D0, symBinAddr: 0x10005F5BC, symSize: 0x8C }
  - { offset: 0x35944, size: 0x8, addend: 0x0, symName: __ZNSt3__128__exception_guard_exceptionsINS_29_AllocatorDestroyRangeReverseINS_9allocatorINS_4pairI8ObstacleiEEEENS_16reverse_iteratorIPS5_EEEEED1B8ne180100Ev, symObjAddr: 0x5B95C, symBinAddr: 0x10005F648, symSize: 0x2C }
  - { offset: 0x3596E, size: 0x8, addend: 0x0, symName: __ZNSt3__128__exception_guard_exceptionsINS_29_AllocatorDestroyRangeReverseINS_9allocatorINS_4pairI8ObstacleiEEEENS_16reverse_iteratorIPS5_EEEEEC1B8ne180100ESA_, symObjAddr: 0x5B988, symBinAddr: 0x10005F674, symSize: 0x34 }
  - { offset: 0x359A7, size: 0x8, addend: 0x0, symName: __ZNSt3__128__exception_guard_exceptionsINS_29_AllocatorDestroyRangeReverseINS_9allocatorINS_4pairI8ObstacleiEEEENS_16reverse_iteratorIPS5_EEEEEC2B8ne180100ESA_, symObjAddr: 0x5B9BC, symBinAddr: 0x10005F6A8, symSize: 0xA4 }
  - { offset: 0x359E0, size: 0x8, addend: 0x0, symName: __ZNSt3__129_AllocatorDestroyRangeReverseINS_9allocatorINS_4pairI8ObstacleiEEEENS_16reverse_iteratorIPS4_EEEC2B8ne180100ERS5_RS8_SB_, symObjAddr: 0x5BA60, symBinAddr: 0x10005F74C, symSize: 0x104 }
  - { offset: 0x35A3D, size: 0x8, addend: 0x0, symName: __ZNSt3__119__to_address_helperINS_16reverse_iteratorIPNS_4pairI8ObstacleiEEEEvE6__callB8ne180100ERKS6_, symObjAddr: 0x5BB64, symBinAddr: 0x10005F850, symSize: 0x44 }
  - { offset: 0x35A60, size: 0x8, addend: 0x0, symName: __ZNKSt3__116reverse_iteratorIPNS_4pairI8ObstacleiEEEptB8ne180100Ev, symObjAddr: 0x5BBA8, symBinAddr: 0x10005F894, symSize: 0x24 }
  - { offset: 0x35A86, size: 0x8, addend: 0x0, symName: __ZNSt3__128__exception_guard_exceptionsINS_29_AllocatorDestroyRangeReverseINS_9allocatorINS_4pairI8ObstacleiEEEENS_16reverse_iteratorIPS5_EEEEED2B8ne180100Ev, symObjAddr: 0x5BBCC, symBinAddr: 0x10005F8B8, symSize: 0xBC }
  - { offset: 0x35AB0, size: 0x8, addend: 0x0, symName: __ZNKSt3__129_AllocatorDestroyRangeReverseINS_9allocatorINS_4pairI8ObstacleiEEEENS_16reverse_iteratorIPS4_EEEclB8ne180100Ev, symObjAddr: 0x5BC88, symBinAddr: 0x10005F974, symSize: 0x3A0 }
  - { offset: 0x35AD7, size: 0x8, addend: 0x0, symName: __ZNSt3__116reverse_iteratorINS0_IPNS_4pairI8ObstacleiEEEEEC1B8ne180100ES5_, symObjAddr: 0x5C098, symBinAddr: 0x10005FD84, symSize: 0x240 }
  - { offset: 0x35B14, size: 0x8, addend: 0x0, symName: __ZNSt3__116reverse_iteratorINS0_IPNS_4pairI8ObstacleiEEEEEppB8ne180100Ev, symObjAddr: 0x5C5B8, symBinAddr: 0x1000602A4, symSize: 0x30 }
  - { offset: 0x35B3A, size: 0x8, addend: 0x0, symName: __ZNKSt3__116reverse_iteratorINS0_IPNS_4pairI8ObstacleiEEEEE4baseB8ne180100Ev, symObjAddr: 0x5C5E8, symBinAddr: 0x1000602D4, symSize: 0x204 }
  - { offset: 0x35B67, size: 0x8, addend: 0x0, symName: __ZNSt3__119__to_address_helperINS_16reverse_iteratorINS1_IPNS_4pairI8ObstacleiEEEEEEvE6__callB8ne180100ERKS7_, symObjAddr: 0x5C7EC, symBinAddr: 0x1000604D8, symSize: 0x44 }
  - { offset: 0x35B8A, size: 0x8, addend: 0x0, symName: __ZNKSt3__116reverse_iteratorINS0_IPNS_4pairI8ObstacleiEEEEEptB8ne180100Ev, symObjAddr: 0x5C830, symBinAddr: 0x10006051C, symSize: 0x24 }
  - { offset: 0x35BB0, size: 0x8, addend: 0x0, symName: __ZNKSt3__116reverse_iteratorINS0_IPNS_4pairI8ObstacleiEEEEEdeB8ne180100Ev, symObjAddr: 0x5C854, symBinAddr: 0x100060540, symSize: 0x1E4 }
  - { offset: 0x35BE9, size: 0x8, addend: 0x0, symName: __ZNSt3__116reverse_iteratorIPNS_4pairI8ObstacleiEEEmmB8ne180100Ev, symObjAddr: 0x5CA38, symBinAddr: 0x100060724, symSize: 0x6C }
  - { offset: 0x35C0F, size: 0x8, addend: 0x0, symName: __ZNSt3__116reverse_iteratorINS0_IPNS_4pairI8ObstacleiEEEEEC2B8ne180100ES5_, symObjAddr: 0x5CAA4, symBinAddr: 0x100060790, symSize: 0x224 }
  - { offset: 0x35C4C, size: 0x8, addend: 0x0, symName: __ZNSt3__116reverse_iteratorIPNS_4pairI8ObstacleiEEEC2B8ne180100ES4_, symObjAddr: 0x5CCC8, symBinAddr: 0x1000609B4, symSize: 0xB8 }
  - { offset: 0x35C84, size: 0x8, addend: 0x0, symName: __ZNSt3__114__split_bufferINS_4pairI8ObstacleiEERNS_9allocatorIS3_EEED2Ev, symObjAddr: 0x5CD80, symBinAddr: 0x100060A6C, symSize: 0x104 }
  - { offset: 0x35CB0, size: 0x8, addend: 0x0, symName: __ZNSt3__114__split_bufferINS_4pairI8ObstacleiEERNS_9allocatorIS3_EEE5clearB8ne180100Ev, symObjAddr: 0x5CE84, symBinAddr: 0x100060B70, symSize: 0x68 }
  - { offset: 0x35CD6, size: 0x8, addend: 0x0, symName: __ZNKSt3__114__split_bufferINS_4pairI8ObstacleiEERNS_9allocatorIS3_EEE8capacityB8ne180100Ev, symObjAddr: 0x5CEEC, symBinAddr: 0x100060BD8, symSize: 0xBC }
  - { offset: 0x35CFC, size: 0x8, addend: 0x0, symName: __ZNSt3__114__split_bufferINS_4pairI8ObstacleiEERNS_9allocatorIS3_EEE17__destruct_at_endB8ne180100EPS3_, symObjAddr: 0x5CFA8, symBinAddr: 0x100060C94, symSize: 0x2C }
  - { offset: 0x35D30, size: 0x8, addend: 0x0, symName: __ZNSt3__114__split_bufferINS_4pairI8ObstacleiEERNS_9allocatorIS3_EEE17__destruct_at_endB8ne180100EPS3_NS_17integral_constantIbLb0EEE, symObjAddr: 0x5CFD4, symBinAddr: 0x100060CC0, symSize: 0x10C }
  - { offset: 0x35D70, size: 0x8, addend: 0x0, symName: __ZNKSt3__114__split_bufferINS_4pairI8ObstacleiEERNS_9allocatorIS3_EEE9__end_capB8ne180100Ev, symObjAddr: 0x5D0E0, symBinAddr: 0x100060DCC, symSize: 0x28 }
  - { offset: 0x35D96, size: 0x8, addend: 0x0, symName: __ZNKSt3__117__compressed_pairIPNS_4pairI8ObstacleiEERNS_9allocatorIS3_EEE5firstB8ne180100Ev, symObjAddr: 0x5D108, symBinAddr: 0x100060DF4, symSize: 0x24 }
  - { offset: 0x35DBC, size: 0x8, addend: 0x0, symName: __ZNSt3__19basic_iosIcNS_11char_traitsIcEEEC2B8ne180100Ev, symObjAddr: 0x5D12C, symBinAddr: 0x100060E18, symSize: 0x7C }
  - { offset: 0x35DE6, size: 0x8, addend: 0x0, symName: __ZNSt3__113basic_ostreamIcNS_11char_traitsIcEEEC2B8ne180100EPNS_15basic_streambufIcS2_EE, symObjAddr: 0x5D1A8, symBinAddr: 0x100060E94, symSize: 0x1D4 }
  - { offset: 0x35E2B, size: 0x8, addend: 0x0, symName: __ZNSt3__18ios_baseC2B8ne180100Ev, symObjAddr: 0x5D37C, symBinAddr: 0x100061068, symSize: 0x6C }
  - { offset: 0x35E55, size: 0x8, addend: 0x0, symName: __ZNSt3__19basic_iosIcNS_11char_traitsIcEEE4initB8ne180100EPNS_15basic_streambufIcS2_EE, symObjAddr: 0x5D3E8, symBinAddr: 0x1000610D4, symSize: 0xEC }
  - { offset: 0x35E8C, size: 0x8, addend: 0x0, symName: __ZNKSt3__113basic_filebufIcNS_11char_traitsIcEEE7is_openEv, symObjAddr: 0x5D4D4, symBinAddr: 0x1000611C0, symSize: 0x70 }
...
